
Discarded input sections

 .text          0x0000000000000000        0x0 build/hx20/RO/baseboard/fwk/baseboard.o
 .data          0x0000000000000000        0x0 build/hx20/RO/baseboard/fwk/baseboard.o
 .bss           0x0000000000000000        0x0 build/hx20/RO/baseboard/fwk/baseboard.o
 .debug_line    0x0000000000000000        0x0 build/hx20/RO/baseboard/fwk/baseboard.o
 .debug_str     0x0000000000000000      0x16f build/hx20/RO/baseboard/fwk/baseboard.o
 .comment       0x0000000000000000       0x27 build/hx20/RO/baseboard/fwk/baseboard.o
 .ARM.attributes
                0x0000000000000000       0x2c build/hx20/RO/baseboard/fwk/baseboard.o
 .text          0x0000000000000000        0x0 build/hx20/RO/baseboard/fwk/baseboard_host_commands.o
 .data          0x0000000000000000        0x0 build/hx20/RO/baseboard/fwk/baseboard_host_commands.o
 .bss           0x0000000000000000        0x0 build/hx20/RO/baseboard/fwk/baseboard_host_commands.o
 .ARM.attributes
                0x0000000000000000       0x2c build/hx20/RO/baseboard/fwk/baseboard_host_commands.o
 .text          0x0000000000000000        0x0 build/hx20/RO/baseboard/fwk/battery.o
 .text.board_batt_is_present
                0x0000000000000000        0xc build/hx20/RO/baseboard/fwk/battery.o
 .ARM.attributes
                0x0000000000000000       0x2c build/hx20/RO/baseboard/fwk/battery.o
 .text          0x0000000000000000        0x0 build/hx20/RO/baseboard/fwk/diagnostics.o
 .data          0x0000000000000000        0x0 build/hx20/RO/baseboard/fwk/diagnostics.o
 .ARM.attributes
                0x0000000000000000       0x2c build/hx20/RO/baseboard/fwk/diagnostics.o
 .text          0x0000000000000000        0x0 build/hx20/RO/baseboard/fwk/fan.o
 .ARM.attributes
                0x0000000000000000       0x2c build/hx20/RO/baseboard/fwk/fan.o
 .text          0x0000000000000000        0x0 build/hx20/RO/baseboard/fwk/flash_storage.o
 .data          0x0000000000000000        0x0 build/hx20/RO/baseboard/fwk/flash_storage.o
 .ARM.attributes
                0x0000000000000000       0x2c build/hx20/RO/baseboard/fwk/flash_storage.o
 .text          0x0000000000000000        0x0 build/hx20/RO/baseboard/fwk/ps2mouse.o
 .ARM.attributes
                0x0000000000000000       0x2c build/hx20/RO/baseboard/fwk/ps2mouse.o
 .text          0x0000000000000000        0x0 build/hx20/RO/board/hx20/board.o
 .text.board_reset_pd_mcu
                0x0000000000000000        0x2 build/hx20/RO/board/hx20/board.o
 .ARM.attributes
                0x0000000000000000       0x2c build/hx20/RO/board/hx20/board.o
 .text          0x0000000000000000        0x0 build/hx20/RO/board/hx20/cpu_power.o
 .ARM.attributes
                0x0000000000000000       0x2c build/hx20/RO/board/hx20/cpu_power.o
 .text          0x0000000000000000        0x0 build/hx20/RO/board/hx20/cypress5525.o
 .text.cypd_get_active_charging_port
                0x0000000000000000       0x3c build/hx20/RO/board/hx20/cypress5525.o
 .text.cypd_reset_source_ports
                0x0000000000000000       0x50 build/hx20/RO/board/hx20/cypress5525.o
 .text.cypd_set_source_pdo_mask
                0x0000000000000000       0x38 build/hx20/RO/board/hx20/cypress5525.o
 .text.pd_port_configuration_change
                0x0000000000000000       0xac build/hx20/RO/board/hx20/cypress5525.o
 .ARM.attributes
                0x0000000000000000       0x2c build/hx20/RO/board/hx20/cypress5525.o
 .text          0x0000000000000000        0x0 build/hx20/RO/board/hx20/host_command_customization.o
 .data          0x0000000000000000        0x0 build/hx20/RO/board/hx20/host_command_customization.o
 .bss           0x0000000000000000        0x0 build/hx20/RO/board/hx20/host_command_customization.o
 .ARM.attributes
                0x0000000000000000       0x2c build/hx20/RO/board/hx20/host_command_customization.o
 .text          0x0000000000000000        0x0 build/hx20/RO/board/hx20/i2c_hid_mediakeys.o
 .ARM.attributes
                0x0000000000000000       0x2c build/hx20/RO/board/hx20/i2c_hid_mediakeys.o
 .text          0x0000000000000000        0x0 build/hx20/RO/board/hx20/keyboard_customization.o
 .text.caps_status_check
                0x0000000000000000        0xc build/hx20/RO/board/hx20/keyboard_customization.o
 .ARM.attributes
                0x0000000000000000       0x2c build/hx20/RO/board/hx20/keyboard_customization.o
 .text          0x0000000000000000        0x0 build/hx20/RO/board/hx20/led.o
 .ARM.attributes
                0x0000000000000000       0x2c build/hx20/RO/board/hx20/led.o
 .text          0x0000000000000000        0x0 build/hx20/RO/board/hx20/peci_customization.o
 .data          0x0000000000000000        0x0 build/hx20/RO/board/hx20/peci_customization.o
 .text.peci_Rd_Pkg_Config
                0x0000000000000000       0x40 build/hx20/RO/board/hx20/peci_customization.o
 .ARM.attributes
                0x0000000000000000       0x2c build/hx20/RO/board/hx20/peci_customization.o
 .text          0x0000000000000000        0x0 build/hx20/RO/board/hx20/power_button_x86.o
 .text.power_button_pch_press
                0x0000000000000000       0x20 build/hx20/RO/board/hx20/power_button_x86.o
 .ARM.attributes
                0x0000000000000000       0x2c build/hx20/RO/board/hx20/power_button_x86.o
 .text          0x0000000000000000        0x0 build/hx20/RO/board/hx20/power_sequence.o
 .ARM.attributes
                0x0000000000000000       0x2c build/hx20/RO/board/hx20/power_sequence.o
 .text          0x0000000000000000        0x0 build/hx20/RO/board/hx20/ucsi.o
 .data          0x0000000000000000        0x0 build/hx20/RO/board/hx20/ucsi.o
 .text.command_names
                0x0000000000000000        0x8 build/hx20/RO/board/hx20/ucsi.o
 .ARM.attributes
                0x0000000000000000       0x2c build/hx20/RO/board/hx20/ucsi.o
 .text          0x0000000000000000        0x0 build/hx20/RO/chip/mchp/adc.o
 .data          0x0000000000000000        0x0 build/hx20/RO/chip/mchp/adc.o
 .text.adc_read_all_channels
                0x0000000000000000       0x88 build/hx20/RO/chip/mchp/adc.o
 .ARM.attributes
                0x0000000000000000       0x2c build/hx20/RO/chip/mchp/adc.o
 .text          0x0000000000000000        0x0 build/hx20/RO/chip/mchp/clock.o
 .data          0x0000000000000000        0x0 build/hx20/RO/chip/mchp/clock.o
 .bss           0x0000000000000000        0x0 build/hx20/RO/chip/mchp/clock.o
 .text.clock_wait_cycles
                0x0000000000000000        0x6 build/hx20/RO/chip/mchp/clock.o
 .ARM.attributes
                0x0000000000000000       0x2c build/hx20/RO/chip/mchp/clock.o
 .text          0x0000000000000000        0x0 build/hx20/RO/chip/mchp/dma.o
 .data          0x0000000000000000        0x0 build/hx20/RO/chip/mchp/dma.o
 .bss           0x0000000000000000        0x0 build/hx20/RO/chip/mchp/dma.o
 .text.prepare_channel
                0x0000000000000000       0x3c build/hx20/RO/chip/mchp/dma.o
 .text.dma_get_channel
                0x0000000000000000       0x12 build/hx20/RO/chip/mchp/dma.o
 .text.dma_go   0x0000000000000000       0x10 build/hx20/RO/chip/mchp/dma.o
 .text.dma_go_chan
                0x0000000000000000       0x1c build/hx20/RO/chip/mchp/dma.o
 .text.dma_prepare_tx
                0x0000000000000000       0x24 build/hx20/RO/chip/mchp/dma.o
 .text.dma_xfr_prepare_tx
                0x0000000000000000       0x30 build/hx20/RO/chip/mchp/dma.o
 .text.dma_start_rx
                0x0000000000000000       0x2c build/hx20/RO/chip/mchp/dma.o
 .text.dma_xfr_start_rx
                0x0000000000000000       0x60 build/hx20/RO/chip/mchp/dma.o
 .text.dma_bytes_done
                0x0000000000000000        0xc build/hx20/RO/chip/mchp/dma.o
 .text.dma_is_enabled
                0x0000000000000000        0x8 build/hx20/RO/chip/mchp/dma.o
 .text.dma_bytes_done_chan
                0x0000000000000000       0x28 build/hx20/RO/chip/mchp/dma.o
 .text.dma_wait
                0x0000000000000000       0x60 build/hx20/RO/chip/mchp/dma.o
 .text.dma_is_done_chan
                0x0000000000000000       0x18 build/hx20/RO/chip/mchp/dma.o
 .text.dma_crc32_start
                0x0000000000000000       0x7c build/hx20/RO/chip/mchp/dma.o
 .ARM.attributes
                0x0000000000000000       0x2c build/hx20/RO/chip/mchp/dma.o
 .text          0x0000000000000000        0x0 build/hx20/RO/chip/mchp/espi.o
 .data          0x0000000000000000        0x0 build/hx20/RO/chip/mchp/espi.o
 .text.espi_vw_power_signal_interrupt
                0x0000000000000000        0x4 build/hx20/RO/chip/mchp/espi.o
 .text.espi_oob_retry_receive_date
                0x0000000000000000       0x78 build/hx20/RO/chip/mchp/espi.o
 .text.espi_oob_build_peci_command
                0x0000000000000000       0xbc build/hx20/RO/chip/mchp/espi.o
 .ARM.attributes
                0x0000000000000000       0x2c build/hx20/RO/chip/mchp/espi.o
 .text          0x0000000000000000        0x0 build/hx20/RO/chip/mchp/fan.o
 .data          0x0000000000000000        0x0 build/hx20/RO/chip/mchp/fan.o
 .bss           0x0000000000000000        0x0 build/hx20/RO/chip/mchp/fan.o
 .debug_info    0x0000000000000000       0x5e build/hx20/RO/chip/mchp/fan.o
 .debug_abbrev  0x0000000000000000       0x26 build/hx20/RO/chip/mchp/fan.o
 .debug_aranges
                0x0000000000000000       0x18 build/hx20/RO/chip/mchp/fan.o
 .debug_line    0x0000000000000000       0x30 build/hx20/RO/chip/mchp/fan.o
 .debug_str     0x0000000000000000      0x1d3 build/hx20/RO/chip/mchp/fan.o
 .comment       0x0000000000000000       0x27 build/hx20/RO/chip/mchp/fan.o
 .ARM.attributes
                0x0000000000000000       0x2c build/hx20/RO/chip/mchp/fan.o
 .text          0x0000000000000000        0x0 build/hx20/RO/chip/mchp/flash.o
 .data          0x0000000000000000        0x0 build/hx20/RO/chip/mchp/flash.o
 .ARM.attributes
                0x0000000000000000       0x2c build/hx20/RO/chip/mchp/flash.o
 .text          0x0000000000000000        0x0 build/hx20/RO/chip/mchp/gpio.o
 .data          0x0000000000000000        0x0 build/hx20/RO/chip/mchp/gpio.o
 .bss           0x0000000000000000        0x0 build/hx20/RO/chip/mchp/gpio.o
 .text.gpio_power_off_by_mask
                0x0000000000000000       0x2c build/hx20/RO/chip/mchp/gpio.o
 .text.gpio_power_off
                0x0000000000000000       0x30 build/hx20/RO/chip/mchp/gpio.o
 .text.gpio_clear_pending_interrupt
                0x0000000000000000       0x44 build/hx20/RO/chip/mchp/gpio.o
 .ARM.attributes
                0x0000000000000000       0x2c build/hx20/RO/chip/mchp/gpio.o
 .text          0x0000000000000000        0x0 build/hx20/RO/chip/mchp/hwtimer.o
 .data          0x0000000000000000        0x0 build/hx20/RO/chip/mchp/hwtimer.o
 .bss           0x0000000000000000        0x0 build/hx20/RO/chip/mchp/hwtimer.o
 .text.__hw_clock_source_set
                0x0000000000000000       0x24 build/hx20/RO/chip/mchp/hwtimer.o
 .ARM.attributes
                0x0000000000000000       0x2c build/hx20/RO/chip/mchp/hwtimer.o
 .text          0x0000000000000000        0x0 build/hx20/RO/chip/mchp/i2c.o
 .data          0x0000000000000000        0x0 build/hx20/RO/chip/mchp/i2c.o
 .text.chip_i2c_get_ctx_flags
                0x0000000000000000       0x20 build/hx20/RO/chip/mchp/i2c.o
 .ARM.attributes
                0x0000000000000000       0x2c build/hx20/RO/chip/mchp/i2c.o
 .text          0x0000000000000000        0x0 build/hx20/RO/chip/mchp/keyboard_raw.o
 .data          0x0000000000000000        0x0 build/hx20/RO/chip/mchp/keyboard_raw.o
 .bss           0x0000000000000000        0x0 build/hx20/RO/chip/mchp/keyboard_raw.o
 .text.keyboard_raw_is_input_low
                0x0000000000000000       0x1a build/hx20/RO/chip/mchp/keyboard_raw.o
 .ARM.attributes
                0x0000000000000000       0x2c build/hx20/RO/chip/mchp/keyboard_raw.o
 .text          0x0000000000000000        0x0 build/hx20/RO/chip/mchp/lpc.o
 .data          0x0000000000000000        0x0 build/hx20/RO/chip/mchp/lpc.o
 .text.lpcrst_interrupt
                0x0000000000000000        0x2 build/hx20/RO/chip/mchp/lpc.o
 .text.port_80_read
                0x0000000000000000       0x20 build/hx20/RO/chip/mchp/lpc.o
 .text.lpc_get_pltrst_asserted
                0x0000000000000000       0x12 build/hx20/RO/chip/mchp/lpc.o
 .text.lpc_enable_acpi_interrupts
                0x0000000000000000        0x6 build/hx20/RO/chip/mchp/lpc.o
 .text.lpc_disable_acpi_interrupts
                0x0000000000000000        0x6 build/hx20/RO/chip/mchp/lpc.o
 .ARM.attributes
                0x0000000000000000       0x2c build/hx20/RO/chip/mchp/lpc.o
 .text          0x0000000000000000        0x0 build/hx20/RO/chip/mchp/peci.o
 .data          0x0000000000000000        0x0 build/hx20/RO/chip/mchp/peci.o
 .bss           0x0000000000000000        0x0 build/hx20/RO/chip/mchp/peci.o
 .ARM.attributes
                0x0000000000000000       0x2c build/hx20/RO/chip/mchp/peci.o
 .text          0x0000000000000000        0x0 build/hx20/RO/chip/mchp/port80.o
 .data          0x0000000000000000        0x0 build/hx20/RO/chip/mchp/port80.o
 .bss           0x0000000000000000        0x0 build/hx20/RO/chip/mchp/port80.o
 .ARM.attributes
                0x0000000000000000       0x2c build/hx20/RO/chip/mchp/port80.o
 .text          0x0000000000000000        0x0 build/hx20/RO/chip/mchp/pwm.o
 .data          0x0000000000000000        0x0 build/hx20/RO/chip/mchp/pwm.o
 .text.pwm_keep_awake
                0x0000000000000000       0x64 build/hx20/RO/chip/mchp/pwm.o
 .ARM.attributes
                0x0000000000000000       0x2c build/hx20/RO/chip/mchp/pwm.o
 .text          0x0000000000000000        0x0 build/hx20/RO/chip/mchp/qmspi.o
 .data          0x0000000000000000        0x0 build/hx20/RO/chip/mchp/qmspi.o
 .bss           0x0000000000000000        0x0 build/hx20/RO/chip/mchp/qmspi.o
 .text.qmspi_transaction_wait
                0x0000000000000000       0x18 build/hx20/RO/chip/mchp/qmspi.o
 .ARM.attributes
                0x0000000000000000       0x2c build/hx20/RO/chip/mchp/qmspi.o
 .text          0x0000000000000000        0x0 build/hx20/RO/chip/mchp/spi.o
 .data          0x0000000000000000        0x0 build/hx20/RO/chip/mchp/spi.o
 .text.spi_transaction_wait
                0x0000000000000000        0xe build/hx20/RO/chip/mchp/spi.o
 .ARM.attributes
                0x0000000000000000       0x2c build/hx20/RO/chip/mchp/spi.o
 .text          0x0000000000000000        0x0 build/hx20/RO/chip/mchp/system.o
 .data          0x0000000000000000        0x0 build/hx20/RO/chip/mchp/system.o
 .text.chip_read_reset_flags
                0x0000000000000000        0xc build/hx20/RO/chip/mchp/system.o
 .text.chip_save_reset_flags
                0x0000000000000000        0xc build/hx20/RO/chip/mchp/system.o
 .text.system_set_scratchpad
                0x0000000000000000       0x10 build/hx20/RO/chip/mchp/system.o
 .text.system_get_scratchpad
                0x0000000000000000        0xc build/hx20/RO/chip/mchp/system.o
 .ARM.attributes
                0x0000000000000000       0x2c build/hx20/RO/chip/mchp/system.o
 .text          0x0000000000000000        0x0 build/hx20/RO/chip/mchp/tfdp.o
 .data          0x0000000000000000        0x0 build/hx20/RO/chip/mchp/tfdp.o
 .bss           0x0000000000000000        0x0 build/hx20/RO/chip/mchp/tfdp.o
 .debug_info    0x0000000000000000       0x5e build/hx20/RO/chip/mchp/tfdp.o
 .debug_abbrev  0x0000000000000000       0x26 build/hx20/RO/chip/mchp/tfdp.o
 .debug_aranges
                0x0000000000000000       0x18 build/hx20/RO/chip/mchp/tfdp.o
 .debug_line    0x0000000000000000       0x31 build/hx20/RO/chip/mchp/tfdp.o
 .debug_str     0x0000000000000000      0x1d4 build/hx20/RO/chip/mchp/tfdp.o
 .comment       0x0000000000000000       0x27 build/hx20/RO/chip/mchp/tfdp.o
 .ARM.attributes
                0x0000000000000000       0x2c build/hx20/RO/chip/mchp/tfdp.o
 .text          0x0000000000000000        0x0 build/hx20/RO/chip/mchp/uart.o
 .data          0x0000000000000000        0x0 build/hx20/RO/chip/mchp/uart.o
 .text.uart_tx_in_progress
                0x0000000000000000       0x14 build/hx20/RO/chip/mchp/uart.o
 .text.uart_disable_interrupt
                0x0000000000000000        0x6 build/hx20/RO/chip/mchp/uart.o
 .text.uart_enable_interrupt
                0x0000000000000000        0x6 build/hx20/RO/chip/mchp/uart.o
 .ARM.attributes
                0x0000000000000000       0x2c build/hx20/RO/chip/mchp/uart.o
 .text          0x0000000000000000        0x0 build/hx20/RO/chip/mchp/watchdog.o
 .data          0x0000000000000000        0x0 build/hx20/RO/chip/mchp/watchdog.o
 .bss           0x0000000000000000        0x0 build/hx20/RO/chip/mchp/watchdog.o
 .ARM.attributes
                0x0000000000000000       0x2c build/hx20/RO/chip/mchp/watchdog.o
 .text          0x0000000000000000        0x0 build/hx20/RO/common/acpi.o
 .text.acpi_dptf_set_profile_num
                0x0000000000000000       0x14 build/hx20/RO/common/acpi.o
 .text.acpi_dptf_get_profile_num
                0x0000000000000000        0xc build/hx20/RO/common/acpi.o
 .ARM.attributes
                0x0000000000000000       0x2c build/hx20/RO/common/acpi.o
 .text          0x0000000000000000        0x0 build/hx20/RO/common/adc.o
 .data          0x0000000000000000        0x0 build/hx20/RO/common/adc.o
 .bss           0x0000000000000000        0x0 build/hx20/RO/common/adc.o
 .ARM.attributes
                0x0000000000000000       0x2c build/hx20/RO/common/adc.o
 .text          0x0000000000000000        0x0 build/hx20/RO/common/battery.o
 .data          0x0000000000000000        0x0 build/hx20/RO/common/battery.o
 .text.board_battery_compensate_params
                0x0000000000000000        0x2 build/hx20/RO/common/battery.o
 .text.get_battery_manufacturer_name
                0x0000000000000000       0x14 build/hx20/RO/common/battery.o
 .text.battery_charger_notify
                0x0000000000000000        0x2 build/hx20/RO/common/battery.o
 .ARM.attributes
                0x0000000000000000       0x2c build/hx20/RO/common/battery.o
 .text          0x0000000000000000        0x0 build/hx20/RO/common/charge_manager.o
 .text.charge_manager_force_ceil
                0x0000000000000000       0x44 build/hx20/RO/common/charge_manager.o
 .text.charge_manager_get_override
                0x0000000000000000        0xc build/hx20/RO/common/charge_manager.o
 .text.charge_manager_get_active_charge_port
                0x0000000000000000        0xc build/hx20/RO/common/charge_manager.o
 .text.charge_manager_get_selected_charge_port
                0x0000000000000000       0x12 build/hx20/RO/common/charge_manager.o
 .text.charge_manager_get_charger_voltage
                0x0000000000000000        0xc build/hx20/RO/common/charge_manager.o
 .text.charge_manager_get_supplier
                0x0000000000000000        0xc build/hx20/RO/common/charge_manager.o
 .ARM.attributes
                0x0000000000000000       0x2c build/hx20/RO/common/charge_manager.o
 .text          0x0000000000000000        0x0 build/hx20/RO/common/charge_state_v2.o
 .text.charge_get_flags
                0x0000000000000000       0x24 build/hx20/RO/common/charge_state_v2.o
 .text.charge_is_consuming_full_input_current
                0x0000000000000000       0x12 build/hx20/RO/common/charge_state_v2.o
 .text.charge_get_active_chg_chip
                0x0000000000000000        0x4 build/hx20/RO/common/charge_state_v2.o
 .ARM.attributes
                0x0000000000000000       0x2c build/hx20/RO/common/charge_state_v2.o
 .text          0x0000000000000000        0x0 build/hx20/RO/common/charger.o
 .bss           0x0000000000000000        0x0 build/hx20/RO/common/charger.o
 .text.charger_enable_otg_power
                0x0000000000000000       0x48 build/hx20/RO/common/charger.o
 .text.charger_set_otg_current_voltage
                0x0000000000000000       0x4c build/hx20/RO/common/charger.o
 .text.charger_is_sourcing_otg_power
                0x0000000000000000       0x3c build/hx20/RO/common/charger.o
 .text.charger_set_hw_ramp
                0x0000000000000000       0x3c build/hx20/RO/common/charger.o
 .text.charger_set_vsys_compensation
                0x0000000000000000       0x58 build/hx20/RO/common/charger.o
 .ARM.attributes
                0x0000000000000000       0x2c build/hx20/RO/common/charger.o
 .text          0x0000000000000000        0x0 build/hx20/RO/common/chipset.o
 .data          0x0000000000000000        0x0 build/hx20/RO/common/chipset.o
 .bss           0x0000000000000000        0x0 build/hx20/RO/common/chipset.o
 .ARM.attributes
                0x0000000000000000       0x2c build/hx20/RO/common/chipset.o
 .text          0x0000000000000000        0x0 build/hx20/RO/common/console.o
 .data          0x0000000000000000        0x0 build/hx20/RO/common/console.o
 .ARM.attributes
                0x0000000000000000       0x2c build/hx20/RO/common/console.o
 .text          0x0000000000000000        0x0 build/hx20/RO/common/console_output.o
 .bss           0x0000000000000000        0x0 build/hx20/RO/common/console_output.o
 .ARM.attributes
                0x0000000000000000       0x2c build/hx20/RO/common/console_output.o
 .text          0x0000000000000000        0x0 build/hx20/RO/common/dptf.o
 .data          0x0000000000000000        0x0 build/hx20/RO/common/dptf.o
 .ARM.attributes
                0x0000000000000000       0x2c build/hx20/RO/common/dptf.o
 .text          0x0000000000000000        0x0 build/hx20/RO/common/ec_features.o
 .data          0x0000000000000000        0x0 build/hx20/RO/common/ec_features.o
 .bss           0x0000000000000000        0x0 build/hx20/RO/common/ec_features.o
 .ARM.attributes
                0x0000000000000000       0x2c build/hx20/RO/common/ec_features.o
 .text          0x0000000000000000        0x0 build/hx20/RO/common/espi.o
 .data          0x0000000000000000       0x5c build/hx20/RO/common/espi.o
 .bss           0x0000000000000000        0x0 build/hx20/RO/common/espi.o
 .text.espi_vw_get_wire_name
                0x0000000000000000       0x18 build/hx20/RO/common/espi.o
 .rodata.str1.1
                0x0000000000000000      0x137 build/hx20/RO/common/espi.o
 .ARM.attributes
                0x0000000000000000       0x2c build/hx20/RO/common/espi.o
 .text          0x0000000000000000        0x0 build/hx20/RO/common/extpower_common.o
 .data          0x0000000000000000        0x0 build/hx20/RO/common/extpower_common.o
 .bss           0x0000000000000000        0x0 build/hx20/RO/common/extpower_common.o
 .ARM.attributes
                0x0000000000000000       0x2c build/hx20/RO/common/extpower_common.o
 .text          0x0000000000000000        0x0 build/hx20/RO/common/extpower_gpio.o
 .data          0x0000000000000000        0x0 build/hx20/RO/common/extpower_gpio.o
 .ARM.attributes
                0x0000000000000000       0x2c build/hx20/RO/common/extpower_gpio.o
 .text          0x0000000000000000        0x0 build/hx20/RO/common/fan.o
 .text.is_thermal_control_enabled
                0x0000000000000000        0xc build/hx20/RO/common/fan.o
 .text.fan_set_count
                0x0000000000000000       0x28 build/hx20/RO/common/fan.o
 .ARM.attributes
                0x0000000000000000       0x2c build/hx20/RO/common/fan.o
 .text          0x0000000000000000        0x0 build/hx20/RO/common/flash.o
 .data          0x0000000000000000        0x0 build/hx20/RO/common/flash.o
 .bss           0x0000000000000000        0x0 build/hx20/RO/common/flash.o
 .text.flash_is_erased
                0x0000000000000000       0x40 build/hx20/RO/common/flash.o
 .text.flash_protect_at_boot
                0x0000000000000000        0x4 build/hx20/RO/common/flash.o
 .ARM.attributes
                0x0000000000000000       0x2c build/hx20/RO/common/flash.o
 .text          0x0000000000000000        0x0 build/hx20/RO/common/fmap.o
 .data          0x0000000000000000        0x0 build/hx20/RO/common/fmap.o
 .bss           0x0000000000000000        0x0 build/hx20/RO/common/fmap.o
 .ARM.attributes
                0x0000000000000000       0x2c build/hx20/RO/common/fmap.o
 .text          0x0000000000000000        0x0 build/hx20/RO/common/fpsensor/fpsensor_detect_strings.o
 .data          0x0000000000000000        0x0 build/hx20/RO/common/fpsensor/fpsensor_detect_strings.o
 .bss           0x0000000000000000        0x0 build/hx20/RO/common/fpsensor/fpsensor_detect_strings.o
 .rodata.str1.1
                0x0000000000000000       0x1a build/hx20/RO/common/fpsensor/fpsensor_detect_strings.o
 .text.fp_transport_type_to_str
                0x0000000000000000       0x20 build/hx20/RO/common/fpsensor/fpsensor_detect_strings.o
 .text.fp_sensor_type_to_str
                0x0000000000000000       0x20 build/hx20/RO/common/fpsensor/fpsensor_detect_strings.o
 .debug_info    0x0000000000000000       0xd6 build/hx20/RO/common/fpsensor/fpsensor_detect_strings.o
 .debug_abbrev  0x0000000000000000       0xa9 build/hx20/RO/common/fpsensor/fpsensor_detect_strings.o
 .debug_loclists
                0x0000000000000000       0x5c build/hx20/RO/common/fpsensor/fpsensor_detect_strings.o
 .debug_aranges
                0x0000000000000000       0x28 build/hx20/RO/common/fpsensor/fpsensor_detect_strings.o
 .debug_rnglists
                0x0000000000000000       0x19 build/hx20/RO/common/fpsensor/fpsensor_detect_strings.o
 .debug_line    0x0000000000000000       0xad build/hx20/RO/common/fpsensor/fpsensor_detect_strings.o
 .debug_str     0x0000000000000000      0x26a build/hx20/RO/common/fpsensor/fpsensor_detect_strings.o
 .comment       0x0000000000000000       0x27 build/hx20/RO/common/fpsensor/fpsensor_detect_strings.o
 .debug_frame   0x0000000000000000       0x30 build/hx20/RO/common/fpsensor/fpsensor_detect_strings.o
 .ARM.attributes
                0x0000000000000000       0x2c build/hx20/RO/common/fpsensor/fpsensor_detect_strings.o
 .text          0x0000000000000000        0x0 build/hx20/RO/common/gpio.o
 .data          0x0000000000000000        0x0 build/hx20/RO/common/gpio.o
 .bss           0x0000000000000000        0x0 build/hx20/RO/common/gpio.o
 .text.gpio_get_ternary
                0x0000000000000000       0x50 build/hx20/RO/common/gpio.o
 .rodata.str1.1
                0x0000000000000000       0x30 build/hx20/RO/common/gpio.o
 .text.gpio_set_level_verbose
                0x0000000000000000       0x44 build/hx20/RO/common/gpio.o
 .text.gpio_or_ioex_set_level
                0x0000000000000000        0x6 build/hx20/RO/common/gpio.o
 .text.gpio_or_ioex_get_level
                0x0000000000000000       0x10 build/hx20/RO/common/gpio.o
 .text.gpio_set_wakepin
                0x0000000000000000        0x2 build/hx20/RO/common/gpio.o
 .ARM.attributes
                0x0000000000000000       0x2c build/hx20/RO/common/gpio.o
 .text          0x0000000000000000        0x0 build/hx20/RO/common/gpio_commands.o
 .data          0x0000000000000000        0x0 build/hx20/RO/common/gpio_commands.o
 .ARM.attributes
                0x0000000000000000       0x2c build/hx20/RO/common/gpio_commands.o
 .text          0x0000000000000000        0x0 build/hx20/RO/common/hooks.o
 .ARM.attributes
                0x0000000000000000       0x2c build/hx20/RO/common/hooks.o
 .text          0x0000000000000000        0x0 build/hx20/RO/common/host_command.o
 .text.host_request_expected_size
                0x0000000000000000       0x1a build/hx20/RO/common/host_command.o
 .ARM.attributes
                0x0000000000000000       0x2c build/hx20/RO/common/host_command.o
 .text          0x0000000000000000        0x0 build/hx20/RO/common/host_event_commands.o
 .data          0x0000000000000000        0x0 build/hx20/RO/common/host_event_commands.o
 .text.lpc_s3_resume_clear_masks
                0x0000000000000000       0x2c build/hx20/RO/common/host_event_commands.o
 .text.host_is_event_set
                0x0000000000000000       0x1c build/hx20/RO/common/host_event_commands.o
 .ARM.attributes
                0x0000000000000000       0x2c build/hx20/RO/common/host_event_commands.o
 .text          0x0000000000000000        0x0 build/hx20/RO/common/i2c_master.o
 .data          0x0000000000000000        0x0 build/hx20/RO/common/i2c_master.o
 .text.i2c_read32
                0x0000000000000000       0x4c build/hx20/RO/common/i2c_master.o
 .text.i2c_write32
                0x0000000000000000       0x44 build/hx20/RO/common/i2c_master.o
 .text.i2c_update8
                0x0000000000000000       0x3a build/hx20/RO/common/i2c_master.o
 .text.i2c_field_update8
                0x0000000000000000       0x38 build/hx20/RO/common/i2c_master.o
 .text.i2c_field_update16
                0x0000000000000000       0x38 build/hx20/RO/common/i2c_master.o
 .text.i2c_read_block
                0x0000000000000000       0x1c build/hx20/RO/common/i2c_master.o
 .text.i2c_write_block
                0x0000000000000000       0x5a build/hx20/RO/common/i2c_master.o
 .text.i2c_set_freq
                0x0000000000000000       0x32 build/hx20/RO/common/i2c_master.o
 .text.i2c_get_freq
                0x0000000000000000        0x4 build/hx20/RO/common/i2c_master.o
 .ARM.attributes
                0x0000000000000000       0x2c build/hx20/RO/common/i2c_master.o
 .text          0x0000000000000000        0x0 build/hx20/RO/common/i2c_slave.o
 .data          0x0000000000000000        0x0 build/hx20/RO/common/i2c_slave.o
 .bss           0x0000000000000000        0x0 build/hx20/RO/common/i2c_slave.o
 .debug_info    0x0000000000000000       0x65 build/hx20/RO/common/i2c_slave.o
 .debug_abbrev  0x0000000000000000       0x26 build/hx20/RO/common/i2c_slave.o
 .debug_aranges
                0x0000000000000000       0x18 build/hx20/RO/common/i2c_slave.o
 .debug_line    0x0000000000000000       0x33 build/hx20/RO/common/i2c_slave.o
 .debug_str     0x0000000000000000      0x1dc build/hx20/RO/common/i2c_slave.o
 .comment       0x0000000000000000       0x27 build/hx20/RO/common/i2c_slave.o
 .ARM.attributes
                0x0000000000000000       0x2c build/hx20/RO/common/i2c_slave.o
 .text          0x0000000000000000        0x0 build/hx20/RO/common/init_rom.o
 .data          0x0000000000000000        0x0 build/hx20/RO/common/init_rom.o
 .bss           0x0000000000000000        0x0 build/hx20/RO/common/init_rom.o
 .text.init_rom_map
                0x0000000000000000        0x2 build/hx20/RO/common/init_rom.o
 .text.init_rom_unmap
                0x0000000000000000        0x2 build/hx20/RO/common/init_rom.o
 .text.init_rom_copy
                0x0000000000000000        0x4 build/hx20/RO/common/init_rom.o
 .debug_info    0x0000000000000000      0x27e build/hx20/RO/common/init_rom.o
 .debug_abbrev  0x0000000000000000      0x193 build/hx20/RO/common/init_rom.o
 .debug_loclists
                0x0000000000000000       0x51 build/hx20/RO/common/init_rom.o
 .debug_aranges
                0x0000000000000000       0x30 build/hx20/RO/common/init_rom.o
 .debug_rnglists
                0x0000000000000000       0x1f build/hx20/RO/common/init_rom.o
 .debug_line    0x0000000000000000       0xd3 build/hx20/RO/common/init_rom.o
 .debug_str     0x0000000000000000      0x293 build/hx20/RO/common/init_rom.o
 .comment       0x0000000000000000       0x27 build/hx20/RO/common/init_rom.o
 .debug_frame   0x0000000000000000       0x40 build/hx20/RO/common/init_rom.o
 .ARM.attributes
                0x0000000000000000       0x2c build/hx20/RO/common/init_rom.o
 .text          0x0000000000000000        0x0 build/hx20/RO/common/keyboard_8042.o
 .ARM.attributes
                0x0000000000000000       0x2c build/hx20/RO/common/keyboard_8042.o
 .text          0x0000000000000000        0x0 build/hx20/RO/common/keyboard_8042_sharedlib.o
 .data          0x0000000000000000        0x0 build/hx20/RO/common/keyboard_8042_sharedlib.o
 .bss           0x0000000000000000        0x0 build/hx20/RO/common/keyboard_8042_sharedlib.o
 .ARM.attributes
                0x0000000000000000       0x2c build/hx20/RO/common/keyboard_8042_sharedlib.o
 .text          0x0000000000000000        0x0 build/hx20/RO/common/keyboard_backlight.o
 .data          0x0000000000000000        0x0 build/hx20/RO/common/keyboard_backlight.o
 .text.board_kblight_init
                0x0000000000000000        0x2 build/hx20/RO/common/keyboard_backlight.o
 .ARM.attributes
                0x0000000000000000       0x2c build/hx20/RO/common/keyboard_backlight.o
 .text          0x0000000000000000        0x0 build/hx20/RO/common/keyboard_scan.o
 .text.keyboard_scan_get_config
                0x0000000000000000        0x8 build/hx20/RO/common/keyboard_scan.o
 .text.keyboard_scan_get_boot_keys
                0x0000000000000000        0xc build/hx20/RO/common/keyboard_scan.o
 .text.keyboard_scan_get_state
                0x0000000000000000        0x8 build/hx20/RO/common/keyboard_scan.o
 .ARM.attributes
                0x0000000000000000       0x2c build/hx20/RO/common/keyboard_scan.o
 .text          0x0000000000000000        0x0 build/hx20/RO/common/keyboard_vivaldi.o
 .data          0x0000000000000000        0x0 build/hx20/RO/common/keyboard_vivaldi.o
 .ARM.attributes
                0x0000000000000000       0x2c build/hx20/RO/common/keyboard_vivaldi.o
 .text          0x0000000000000000        0x0 build/hx20/RO/common/led_common.o
 .bss           0x0000000000000000        0x0 build/hx20/RO/common/led_common.o
 .text.led_control
                0x0000000000000000        0x2 build/hx20/RO/common/led_common.o
 .ARM.attributes
                0x0000000000000000       0x2c build/hx20/RO/common/led_common.o
 .text          0x0000000000000000        0x0 build/hx20/RO/common/led_pwm.o
 .data          0x0000000000000000        0x0 build/hx20/RO/common/led_pwm.o
 .bss           0x0000000000000000        0x0 build/hx20/RO/common/led_pwm.o
 .ARM.attributes
                0x0000000000000000       0x2c build/hx20/RO/common/led_pwm.o
 .text          0x0000000000000000        0x0 build/hx20/RO/common/lid_switch.o
 .data          0x0000000000000000        0x0 build/hx20/RO/common/lid_switch.o
 .ARM.attributes
                0x0000000000000000       0x2c build/hx20/RO/common/lid_switch.o
 .text          0x0000000000000000        0x0 build/hx20/RO/common/main.o
 .data          0x0000000000000000        0x0 build/hx20/RO/common/main.o
 .bss           0x0000000000000000        0x0 build/hx20/RO/common/main.o
 .ARM.attributes
                0x0000000000000000       0x2c build/hx20/RO/common/main.o
 .text          0x0000000000000000        0x0 build/hx20/RO/common/memory_commands.o
 .data          0x0000000000000000        0x0 build/hx20/RO/common/memory_commands.o
 .bss           0x0000000000000000        0x0 build/hx20/RO/common/memory_commands.o
 .ARM.attributes
                0x0000000000000000       0x2c build/hx20/RO/common/memory_commands.o
 .text          0x0000000000000000        0x0 build/hx20/RO/common/panic_output.o
 .data          0x0000000000000000        0x0 build/hx20/RO/common/panic_output.o
 .bss           0x0000000000000000        0x0 build/hx20/RO/common/panic_output.o
 .text.panic_sw_reason_is_valid
                0x0000000000000000       0x14 build/hx20/RO/common/panic_output.o
 .text.panic    0x0000000000000000       0x14 build/hx20/RO/common/panic_output.o
 .ARM.attributes
                0x0000000000000000       0x2c build/hx20/RO/common/panic_output.o
 .text          0x0000000000000000        0x0 build/hx20/RO/common/peci.o
 .data          0x0000000000000000        0x0 build/hx20/RO/common/peci.o
 .bss           0x0000000000000000        0x0 build/hx20/RO/common/peci.o
 .text.stop_read_peci_temp
                0x0000000000000000       0x12 build/hx20/RO/common/peci.o
 .ARM.attributes
                0x0000000000000000       0x2c build/hx20/RO/common/peci.o
 .text          0x0000000000000000        0x0 build/hx20/RO/common/peripheral.o
 .data          0x0000000000000000        0x0 build/hx20/RO/common/peripheral.o
 .bss           0x0000000000000000        0x0 build/hx20/RO/common/peripheral.o
 .debug_info    0x0000000000000000       0x6c build/hx20/RO/common/peripheral.o
 .debug_abbrev  0x0000000000000000       0x26 build/hx20/RO/common/peripheral.o
 .debug_aranges
                0x0000000000000000       0x18 build/hx20/RO/common/peripheral.o
 .debug_line    0x0000000000000000       0x34 build/hx20/RO/common/peripheral.o
 .debug_str     0x0000000000000000      0x1e3 build/hx20/RO/common/peripheral.o
 .comment       0x0000000000000000       0x27 build/hx20/RO/common/peripheral.o
 .ARM.attributes
                0x0000000000000000       0x2c build/hx20/RO/common/peripheral.o
 .text          0x0000000000000000        0x0 build/hx20/RO/common/port80.o
 .data          0x0000000000000000        0x0 build/hx20/RO/common/port80.o
 .text.port80_last_boot
                0x0000000000000000       0x1c build/hx20/RO/common/port80.o
 .ARM.attributes
                0x0000000000000000       0x2c build/hx20/RO/common/port80.o
 .text          0x0000000000000000        0x0 build/hx20/RO/common/power_button.o
 .text.power_button_wait_for_release
                0x0000000000000000       0xa4 build/hx20/RO/common/power_button.o
 .ARM.attributes
                0x0000000000000000       0x2c build/hx20/RO/common/power_button.o
 .text          0x0000000000000000        0x0 build/hx20/RO/common/printf.o
 .data          0x0000000000000000        0x0 build/hx20/RO/common/printf.o
 .bss           0x0000000000000000        0x0 build/hx20/RO/common/printf.o
 .ARM.attributes
                0x0000000000000000       0x2c build/hx20/RO/common/printf.o
 .text          0x0000000000000000        0x0 build/hx20/RO/common/pwm.o
 .data          0x0000000000000000        0x0 build/hx20/RO/common/pwm.o
 .bss           0x0000000000000000        0x0 build/hx20/RO/common/pwm.o
 .ARM.attributes
                0x0000000000000000       0x2c build/hx20/RO/common/pwm.o
 .text          0x0000000000000000        0x0 build/hx20/RO/common/queue.o
 .data          0x0000000000000000        0x0 build/hx20/RO/common/queue.o
 .bss           0x0000000000000000        0x0 build/hx20/RO/common/queue.o
 .text.queue_is_full
                0x0000000000000000        0xe build/hx20/RO/common/queue.o
 .text.queue_get_write_chunk
                0x0000000000000000       0x3c build/hx20/RO/common/queue.o
 .text.queue_get_read_chunk
                0x0000000000000000       0x36 build/hx20/RO/common/queue.o
 .text.queue_add_memcpy
                0x0000000000000000       0x58 build/hx20/RO/common/queue.o
 .text.queue_add_units
                0x0000000000000000        0xc build/hx20/RO/common/queue.o
 .text.queue_remove_memcpy
                0x0000000000000000       0x32 build/hx20/RO/common/queue.o
 .text.queue_remove_units
                0x0000000000000000        0xc build/hx20/RO/common/queue.o
 .text.queue_begin
                0x0000000000000000       0x32 build/hx20/RO/common/queue.o
 .text.queue_next
                0x0000000000000000       0x50 build/hx20/RO/common/queue.o
 .ARM.attributes
                0x0000000000000000       0x2c build/hx20/RO/common/queue.o
 .text          0x0000000000000000        0x0 build/hx20/RO/common/queue_policies.o
 .data          0x0000000000000000        0x0 build/hx20/RO/common/queue_policies.o
 .bss           0x0000000000000000        0x0 build/hx20/RO/common/queue_policies.o
 .text.queue_add_direct
                0x0000000000000000        0xe build/hx20/RO/common/queue_policies.o
 .text.queue_remove_direct
                0x0000000000000000        0xe build/hx20/RO/common/queue_policies.o
 .rodata        0x0000000000000000       0x18 build/hx20/RO/common/queue_policies.o
 .debug_info    0x0000000000000000      0x53c build/hx20/RO/common/queue_policies.o
 .debug_abbrev  0x0000000000000000      0x158 build/hx20/RO/common/queue_policies.o
 .debug_loclists
                0x0000000000000000       0xa4 build/hx20/RO/common/queue_policies.o
 .debug_aranges
                0x0000000000000000       0x28 build/hx20/RO/common/queue_policies.o
 .debug_rnglists
                0x0000000000000000       0x19 build/hx20/RO/common/queue_policies.o
 .debug_line    0x0000000000000000      0x11e build/hx20/RO/common/queue_policies.o
 .debug_str     0x0000000000000000      0x7dd build/hx20/RO/common/queue_policies.o
 .comment       0x0000000000000000       0x27 build/hx20/RO/common/queue_policies.o
 .debug_frame   0x0000000000000000       0x30 build/hx20/RO/common/queue_policies.o
 .ARM.attributes
                0x0000000000000000       0x2c build/hx20/RO/common/queue_policies.o
 .text          0x0000000000000000        0x0 build/hx20/RO/common/sha256.o
 .data          0x0000000000000000        0x0 build/hx20/RO/common/sha256.o
 .bss           0x0000000000000000        0x0 build/hx20/RO/common/sha256.o
 .text.SHA256_transform
                0x0000000000000000      0x158 build/hx20/RO/common/sha256.o
 .text.SHA256_init
                0x0000000000000000       0x50 build/hx20/RO/common/sha256.o
 .text.SHA256_update
                0x0000000000000000       0x6e build/hx20/RO/common/sha256.o
 .text.SHA256_final
                0x0000000000000000       0x8e build/hx20/RO/common/sha256.o
 .text.hmac_SHA256_step
                0x0000000000000000       0xa0 build/hx20/RO/common/sha256.o
 .rodata.str1.1
                0x0000000000000000       0x2d build/hx20/RO/common/sha256.o
 .text.hmac_SHA256
                0x0000000000000000       0x4c build/hx20/RO/common/sha256.o
 .rodata        0x0000000000000000      0x10c build/hx20/RO/common/sha256.o
 .debug_info    0x0000000000000000      0x98c build/hx20/RO/common/sha256.o
 .debug_abbrev  0x0000000000000000      0x32f build/hx20/RO/common/sha256.o
 .debug_loclists
                0x0000000000000000      0x581 build/hx20/RO/common/sha256.o
 .debug_aranges
                0x0000000000000000       0x48 build/hx20/RO/common/sha256.o
 .debug_rnglists
                0x0000000000000000       0x43 build/hx20/RO/common/sha256.o
 .debug_line    0x0000000000000000      0x5c0 build/hx20/RO/common/sha256.o
 .debug_str     0x0000000000000000      0x811 build/hx20/RO/common/sha256.o
 .comment       0x0000000000000000       0x27 build/hx20/RO/common/sha256.o
 .debug_frame   0x0000000000000000       0xdc build/hx20/RO/common/sha256.o
 .ARM.attributes
                0x0000000000000000       0x2c build/hx20/RO/common/sha256.o
 .text          0x0000000000000000        0x0 build/hx20/RO/common/shared_mem.o
 .data          0x0000000000000000        0x0 build/hx20/RO/common/shared_mem.o
 .ARM.attributes
                0x0000000000000000       0x2c build/hx20/RO/common/shared_mem.o
 .text          0x0000000000000000        0x0 build/hx20/RO/common/spi_commands.o
 .data          0x0000000000000000        0x0 build/hx20/RO/common/spi_commands.o
 .bss           0x0000000000000000        0x0 build/hx20/RO/common/spi_commands.o
 .ARM.attributes
                0x0000000000000000       0x2c build/hx20/RO/common/spi_commands.o
 .text          0x0000000000000000        0x0 build/hx20/RO/common/spi_flash.o
 .data          0x0000000000000000        0x0 build/hx20/RO/common/spi_flash.o
 .text.spi_flash_get_status2
                0x0000000000000000        0x4 build/hx20/RO/common/spi_flash.o
 .text.spi_flash_get_mfr_dev_id
                0x0000000000000000       0x20 build/hx20/RO/common/spi_flash.o
 .ARM.attributes
                0x0000000000000000       0x2c build/hx20/RO/common/spi_flash.o
 .text          0x0000000000000000        0x0 build/hx20/RO/common/spi_flash_reg.o
 .data          0x0000000000000000        0x0 build/hx20/RO/common/spi_flash_reg.o
 .bss           0x0000000000000000        0x0 build/hx20/RO/common/spi_flash_reg.o
 .ARM.attributes
                0x0000000000000000       0x2c build/hx20/RO/common/spi_flash_reg.o
 .text          0x0000000000000000        0x0 build/hx20/RO/common/switch.o
 .data          0x0000000000000000        0x0 build/hx20/RO/common/switch.o
 .text.switch_interrupt
                0x0000000000000000        0xc build/hx20/RO/common/switch.o
 .ARM.attributes
                0x0000000000000000       0x2c build/hx20/RO/common/switch.o
 .text          0x0000000000000000        0x0 build/hx20/RO/common/system.o
 .text.get_program_memory_addr
                0x0000000000000000       0x10 build/hx20/RO/common/system.o
 .text.system_encode_save_flags
                0x0000000000000000       0x44 build/hx20/RO/common/system.o
 .text.system_clear_reset_flags
                0x0000000000000000       0x10 build/hx20/RO/common/system.o
 .text.system_disable_jump
                0x0000000000000000        0xc build/hx20/RO/common/system.o
 .text.system_is_in_rw
                0x0000000000000000       0x16 build/hx20/RO/common/system.o
 .text.system_set_active_copy
                0x0000000000000000        0x8 build/hx20/RO/common/system.o
 .text.system_unsafe_to_overwrite
                0x0000000000000000       0x3e build/hx20/RO/common/system.o
 .text.system_get_image_used
                0x0000000000000000       0x2a build/hx20/RO/common/system.o
 .text.system_get_board_version
                0x0000000000000000        0x4 build/hx20/RO/common/system.o
 .text.system_is_manual_recovery
                0x0000000000000000        0x6 build/hx20/RO/common/system.o
 .text.system_can_boot_ap
                0x0000000000000000       0x48 build/hx20/RO/common/system.o
 .text.clock_enable_module
                0x0000000000000000        0x2 build/hx20/RO/common/system.o
 .text.system_common_reset_state
                0x0000000000000000       0x10 build/hx20/RO/common/system.o
 .ARM.attributes
                0x0000000000000000       0x2c build/hx20/RO/common/system.o
 .text          0x0000000000000000        0x0 build/hx20/RO/common/temp_sensor.o
 .data          0x0000000000000000        0x0 build/hx20/RO/common/temp_sensor.o
 .bss           0x0000000000000000        0x0 build/hx20/RO/common/temp_sensor.o
 .ARM.attributes
                0x0000000000000000       0x2c build/hx20/RO/common/temp_sensor.o
 .text          0x0000000000000000        0x0 build/hx20/RO/common/thermal.o
 .data          0x0000000000000000        0x0 build/hx20/RO/common/thermal.o
 .ARM.attributes
                0x0000000000000000       0x2c build/hx20/RO/common/thermal.o
 .text          0x0000000000000000        0x0 build/hx20/RO/common/throttle_ap.o
 .text.throttle_ap_prochot_input_interrupt
                0x0000000000000000       0x20 build/hx20/RO/common/throttle_ap.o
 .ARM.attributes
                0x0000000000000000       0x2c build/hx20/RO/common/throttle_ap.o
 .text          0x0000000000000000        0x0 build/hx20/RO/common/timer.o
 .text.clock    0x0000000000000000       0x10 build/hx20/RO/common/timer.o
 .text.force_time
                0x0000000000000000       0x18 build/hx20/RO/common/timer.o
 .ARM.attributes
                0x0000000000000000       0x2c build/hx20/RO/common/timer.o
 .text          0x0000000000000000        0x0 build/hx20/RO/common/uart_buffering.o
 .data          0x0000000000000000        0x0 build/hx20/RO/common/uart_buffering.o
 .text.uart_init_buffer
                0x0000000000000000       0x3c build/hx20/RO/common/uart_buffering.o
 .text.uart_clear_input
                0x0000000000000000       0x20 build/hx20/RO/common/uart_buffering.o
 .text.uart_put
                0x0000000000000000       0x2a build/hx20/RO/common/uart_buffering.o
 .text.uart_put_raw
                0x0000000000000000       0x28 build/hx20/RO/common/uart_buffering.o
 .text.uart_printf
                0x0000000000000000       0x1a build/hx20/RO/common/uart_buffering.o
 .text.uart_buffer_empty
                0x0000000000000000       0x14 build/hx20/RO/common/uart_buffering.o
 .text.uart_buffer_full
                0x0000000000000000       0x18 build/hx20/RO/common/uart_buffering.o
 .ARM.attributes
                0x0000000000000000       0x2c build/hx20/RO/common/uart_buffering.o
 .text          0x0000000000000000        0x0 build/hx20/RO/common/uptime.o
 .data          0x0000000000000000        0x0 build/hx20/RO/common/uptime.o
 .bss           0x0000000000000000        0x0 build/hx20/RO/common/uptime.o
 .ARM.attributes
                0x0000000000000000       0x2c build/hx20/RO/common/uptime.o
 .text          0x0000000000000000        0x0 build/hx20/RO/common/util.o
 .data          0x0000000000000000        0x0 build/hx20/RO/common/util.o
 .bss           0x0000000000000000        0x0 build/hx20/RO/common/util.o
 .text.isupper  0x0000000000000000        0xc build/hx20/RO/common/util.o
 .text.strstr   0x0000000000000000       0x5a build/hx20/RO/common/util.o
 .text.memcmp   0x0000000000000000       0x1c build/hx20/RO/common/util.o
 .text.safe_memcmp
                0x0000000000000000       0x28 build/hx20/RO/common/util.o
 .text.memchr   0x0000000000000000       0x1c build/hx20/RO/common/util.o
 .text.reverse  0x0000000000000000       0x1c build/hx20/RO/common/util.o
 .text.strncpy  0x0000000000000000       0x1a build/hx20/RO/common/util.o
 .text.get_next_bit
                0x0000000000000000       0x18 build/hx20/RO/common/util.o
 .text.bytes_are_trivial
                0x0000000000000000       0x28 build/hx20/RO/common/util.o
 .text.is_aligned
                0x0000000000000000       0x14 build/hx20/RO/common/util.o
 .text.hexdump  0x0000000000000000       0xac build/hx20/RO/common/util.o
 .text.wait_for_ready
                0x0000000000000000       0x14 build/hx20/RO/common/util.o
 .ARM.attributes
                0x0000000000000000       0x2c build/hx20/RO/common/util.o
 .text          0x0000000000000000        0x0 build/hx20/RO/common/version.o
 .data          0x0000000000000000        0x0 build/hx20/RO/common/version.o
 .bss           0x0000000000000000        0x0 build/hx20/RO/common/version.o
 .text.ver_get_num_commits
                0x0000000000000000       0x52 build/hx20/RO/common/version.o
 .ARM.attributes
                0x0000000000000000       0x2c build/hx20/RO/common/version.o
 .text          0x0000000000000000        0x0 build/hx20/RO/common/vstore.o
 .data          0x0000000000000000        0x0 build/hx20/RO/common/vstore.o
 .ARM.attributes
                0x0000000000000000       0x2c build/hx20/RO/common/vstore.o
 .text          0x0000000000000000        0x0 build/hx20/RO/core/cortex-m/cpu.o
 .data          0x0000000000000000        0x0 build/hx20/RO/core/cortex-m/cpu.o
 .bss           0x0000000000000000        0x0 build/hx20/RO/core/cortex-m/cpu.o
 .ARM.attributes
                0x0000000000000000       0x2c build/hx20/RO/core/cortex-m/cpu.o
 .data          0x0000000000000000        0x0 build/hx20/RO/core/cortex-m/init.o
 .bss           0x0000000000000000        0x0 build/hx20/RO/core/cortex-m/init.o
 .ARM.attributes
                0x0000000000000000       0x1c build/hx20/RO/core/cortex-m/init.o
 .text          0x0000000000000000        0x0 build/hx20/RO/core/cortex-m/ldivmod.o
 .data          0x0000000000000000        0x0 build/hx20/RO/core/cortex-m/ldivmod.o
 .bss           0x0000000000000000        0x0 build/hx20/RO/core/cortex-m/ldivmod.o
 .text.__aeabi_ldivmod
                0x0000000000000000       0x5c build/hx20/RO/core/cortex-m/ldivmod.o
 .debug_line    0x0000000000000000       0x72 build/hx20/RO/core/cortex-m/ldivmod.o
 .debug_line_str
                0x0000000000000000       0x36 build/hx20/RO/core/cortex-m/ldivmod.o
 .debug_info    0x0000000000000000       0x24 build/hx20/RO/core/cortex-m/ldivmod.o
 .debug_abbrev  0x0000000000000000       0x14 build/hx20/RO/core/cortex-m/ldivmod.o
 .debug_aranges
                0x0000000000000000       0x20 build/hx20/RO/core/cortex-m/ldivmod.o
 .debug_str     0x0000000000000000       0x42 build/hx20/RO/core/cortex-m/ldivmod.o
 .ARM.attributes
                0x0000000000000000       0x1c build/hx20/RO/core/cortex-m/ldivmod.o
 .text          0x0000000000000000        0x0 build/hx20/RO/core/cortex-m/llsr.o
 .data          0x0000000000000000        0x0 build/hx20/RO/core/cortex-m/llsr.o
 .bss           0x0000000000000000        0x0 build/hx20/RO/core/cortex-m/llsr.o
 .text.__aeabi_llsr
                0x0000000000000000       0x1a build/hx20/RO/core/cortex-m/llsr.o
 .debug_info    0x0000000000000000       0xf5 build/hx20/RO/core/cortex-m/llsr.o
 .debug_abbrev  0x0000000000000000       0xc0 build/hx20/RO/core/cortex-m/llsr.o
 .debug_loclists
                0x0000000000000000       0x2a build/hx20/RO/core/cortex-m/llsr.o
 .debug_aranges
                0x0000000000000000       0x20 build/hx20/RO/core/cortex-m/llsr.o
 .debug_rnglists
                0x0000000000000000       0x13 build/hx20/RO/core/cortex-m/llsr.o
 .debug_line    0x0000000000000000       0x7d build/hx20/RO/core/cortex-m/llsr.o
 .debug_str     0x0000000000000000      0x203 build/hx20/RO/core/cortex-m/llsr.o
 .comment       0x0000000000000000       0x27 build/hx20/RO/core/cortex-m/llsr.o
 .debug_frame   0x0000000000000000       0x20 build/hx20/RO/core/cortex-m/llsr.o
 .ARM.attributes
                0x0000000000000000       0x2c build/hx20/RO/core/cortex-m/llsr.o
 .text          0x0000000000000000        0x0 build/hx20/RO/core/cortex-m/panic.o
 .text.ignore_bus_fault
                0x0000000000000000       0x1c build/hx20/RO/core/cortex-m/panic.o
 .ARM.attributes
                0x0000000000000000       0x2c build/hx20/RO/core/cortex-m/panic.o
 .data          0x0000000000000000        0x0 build/hx20/RO/core/cortex-m/switch.o
 .bss           0x0000000000000000        0x0 build/hx20/RO/core/cortex-m/switch.o
 .ARM.attributes
                0x0000000000000000       0x1c build/hx20/RO/core/cortex-m/switch.o
 .text          0x0000000000000000        0x0 build/hx20/RO/core/cortex-m/task.o
 .text.task_enable_task
                0x0000000000000000       0x10 build/hx20/RO/core/cortex-m/task.o
 .text.task_disable_task
                0x0000000000000000       0x38 build/hx20/RO/core/cortex-m/task.o
 .text.task_clear_fp_used
                0x0000000000000000       0x12 build/hx20/RO/core/cortex-m/task.o
 .ARM.attributes
                0x0000000000000000       0x2c build/hx20/RO/core/cortex-m/task.o
 .text          0x0000000000000000        0x0 build/hx20/RO/core/cortex-m/uldivmod.o
 .data          0x0000000000000000        0x0 build/hx20/RO/core/cortex-m/uldivmod.o
 .bss           0x0000000000000000        0x0 build/hx20/RO/core/cortex-m/uldivmod.o
 .ARM.attributes
                0x0000000000000000       0x1c build/hx20/RO/core/cortex-m/uldivmod.o
 .text          0x0000000000000000        0x0 build/hx20/RO/core/cortex-m/vecttable.o
 .data          0x0000000000000000        0x0 build/hx20/RO/core/cortex-m/vecttable.o
 .bss           0x0000000000000000        0x0 build/hx20/RO/core/cortex-m/vecttable.o
 .ARM.attributes
                0x0000000000000000       0x2c build/hx20/RO/core/cortex-m/vecttable.o
 .text          0x0000000000000000        0x0 build/hx20/RO/core/cortex-m/watchdog.o
 .data          0x0000000000000000        0x0 build/hx20/RO/core/cortex-m/watchdog.o
 .bss           0x0000000000000000        0x0 build/hx20/RO/core/cortex-m/watchdog.o
 .ARM.attributes
                0x0000000000000000       0x2c build/hx20/RO/core/cortex-m/watchdog.o
 .text          0x0000000000000000        0x0 build/hx20/RO/driver/battery/smart.o
 .bss           0x0000000000000000        0x0 build/hx20/RO/driver/battery/smart.o
 .text.sb_write_block
                0x0000000000000000       0x24 build/hx20/RO/driver/battery/smart.o
 .text.battery_run_time_to_empty
                0x0000000000000000        0x8 build/hx20/RO/driver/battery/smart.o
 .text.battery_time_at_rate
                0x0000000000000000       0x6a build/hx20/RO/driver/battery/smart.o
 .text.battery_wait_for_stable
                0x0000000000000000       0x70 build/hx20/RO/driver/battery/smart.o
 .ARM.attributes
                0x0000000000000000       0x2c build/hx20/RO/driver/battery/smart.o
 .text          0x0000000000000000        0x0 build/hx20/RO/driver/charger/isl9241.o
 .data          0x0000000000000000        0x0 build/hx20/RO/driver/charger/isl9241.o
 .ARM.attributes
                0x0000000000000000       0x2c build/hx20/RO/driver/charger/isl9241.o
 .text          0x0000000000000000        0x0 build/hx20/RO/driver/temp_sensor/f75303.o
 .ARM.attributes
                0x0000000000000000       0x2c build/hx20/RO/driver/temp_sensor/f75303.o
 .text          0x0000000000000000        0x0 build/hx20/RO/power/common.o
 .text.power_has_signals
                0x0000000000000000       0x2c build/hx20/RO/power/common.o
 .ARM.attributes
                0x0000000000000000       0x2c build/hx20/RO/power/common.o
 .text          0x0000000000000000        0x0 build/hx20/RO/power/host_sleep.o
 .data          0x0000000000000000        0x0 build/hx20/RO/power/host_sleep.o
 .text.power_get_host_sleep_state
                0x0000000000000000        0xc build/hx20/RO/power/host_sleep.o
 .text.power_set_host_sleep_state
                0x0000000000000000        0xc build/hx20/RO/power/host_sleep.o
 .text.sleep_set_notify
                0x0000000000000000        0x2 build/hx20/RO/power/host_sleep.o
 .text.sleep_notify_transition
                0x0000000000000000        0x2 build/hx20/RO/power/host_sleep.o
 .text.sleep_suspend_transition
                0x0000000000000000        0x2 build/hx20/RO/power/host_sleep.o
 .text.sleep_resume_transition
                0x0000000000000000        0x2 build/hx20/RO/power/host_sleep.o
 .text.sleep_start_suspend
                0x0000000000000000        0x2 build/hx20/RO/power/host_sleep.o
 .text.sleep_complete_resume
                0x0000000000000000        0x2 build/hx20/RO/power/host_sleep.o
 .text.sleep_reset_tracking
                0x0000000000000000        0x2 build/hx20/RO/power/host_sleep.o
 .ARM.attributes
                0x0000000000000000       0x2c build/hx20/RO/power/host_sleep.o

Memory Configuration

Name             Origin             Length             Attributes
FLASH            0x00000000000e1000 0x000000000002f000 xr
IRAM             0x0000000000110000 0x0000000000010000 rw
CDRAM            0x00000000000e1000 0x000000000002f000 xr
*default*        0x0000000000000000 0xffffffffffffffff

Linker script and memory map

LOAD build/hx20/RO/baseboard/fwk/baseboard.o
LOAD build/hx20/RO/baseboard/fwk/baseboard_host_commands.o
LOAD build/hx20/RO/baseboard/fwk/battery.o
LOAD build/hx20/RO/baseboard/fwk/diagnostics.o
LOAD build/hx20/RO/baseboard/fwk/fan.o
LOAD build/hx20/RO/baseboard/fwk/flash_storage.o
LOAD build/hx20/RO/baseboard/fwk/ps2mouse.o
LOAD build/hx20/RO/board/hx20/board.o
LOAD build/hx20/RO/board/hx20/cpu_power.o
LOAD build/hx20/RO/board/hx20/cypress5525.o
LOAD build/hx20/RO/board/hx20/host_command_customization.o
LOAD build/hx20/RO/board/hx20/i2c_hid_mediakeys.o
LOAD build/hx20/RO/board/hx20/keyboard_customization.o
LOAD build/hx20/RO/board/hx20/led.o
LOAD build/hx20/RO/board/hx20/peci_customization.o
LOAD build/hx20/RO/board/hx20/power_button_x86.o
LOAD build/hx20/RO/board/hx20/power_sequence.o
LOAD build/hx20/RO/board/hx20/ucsi.o
LOAD build/hx20/RO/chip/mchp/adc.o
LOAD build/hx20/RO/chip/mchp/clock.o
LOAD build/hx20/RO/chip/mchp/dma.o
LOAD build/hx20/RO/chip/mchp/espi.o
LOAD build/hx20/RO/chip/mchp/fan.o
LOAD build/hx20/RO/chip/mchp/flash.o
LOAD build/hx20/RO/chip/mchp/gpio.o
LOAD build/hx20/RO/chip/mchp/hwtimer.o
LOAD build/hx20/RO/chip/mchp/i2c.o
LOAD build/hx20/RO/chip/mchp/keyboard_raw.o
LOAD build/hx20/RO/chip/mchp/lpc.o
LOAD build/hx20/RO/chip/mchp/peci.o
LOAD build/hx20/RO/chip/mchp/port80.o
LOAD build/hx20/RO/chip/mchp/pwm.o
LOAD build/hx20/RO/chip/mchp/qmspi.o
LOAD build/hx20/RO/chip/mchp/spi.o
LOAD build/hx20/RO/chip/mchp/system.o
LOAD build/hx20/RO/chip/mchp/tfdp.o
LOAD build/hx20/RO/chip/mchp/uart.o
LOAD build/hx20/RO/chip/mchp/watchdog.o
LOAD build/hx20/RO/common/acpi.o
LOAD build/hx20/RO/common/adc.o
LOAD build/hx20/RO/common/battery.o
LOAD build/hx20/RO/common/charge_manager.o
LOAD build/hx20/RO/common/charge_state_v2.o
LOAD build/hx20/RO/common/charger.o
LOAD build/hx20/RO/common/chipset.o
LOAD build/hx20/RO/common/console.o
LOAD build/hx20/RO/common/console_output.o
LOAD build/hx20/RO/common/dptf.o
LOAD build/hx20/RO/common/ec_features.o
LOAD build/hx20/RO/common/espi.o
LOAD build/hx20/RO/common/extpower_common.o
LOAD build/hx20/RO/common/extpower_gpio.o
LOAD build/hx20/RO/common/fan.o
LOAD build/hx20/RO/common/flash.o
LOAD build/hx20/RO/common/fmap.o
LOAD build/hx20/RO/common/fpsensor/fpsensor_detect_strings.o
LOAD build/hx20/RO/common/gpio.o
LOAD build/hx20/RO/common/gpio_commands.o
LOAD build/hx20/RO/common/hooks.o
LOAD build/hx20/RO/common/host_command.o
LOAD build/hx20/RO/common/host_event_commands.o
LOAD build/hx20/RO/common/i2c_master.o
LOAD build/hx20/RO/common/i2c_slave.o
LOAD build/hx20/RO/common/init_rom.o
LOAD build/hx20/RO/common/keyboard_8042.o
LOAD build/hx20/RO/common/keyboard_8042_sharedlib.o
LOAD build/hx20/RO/common/keyboard_backlight.o
LOAD build/hx20/RO/common/keyboard_scan.o
LOAD build/hx20/RO/common/keyboard_vivaldi.o
LOAD build/hx20/RO/common/led_common.o
LOAD build/hx20/RO/common/led_pwm.o
LOAD build/hx20/RO/common/lid_switch.o
LOAD build/hx20/RO/common/main.o
LOAD build/hx20/RO/common/memory_commands.o
LOAD build/hx20/RO/common/panic_output.o
LOAD build/hx20/RO/common/peci.o
LOAD build/hx20/RO/common/peripheral.o
LOAD build/hx20/RO/common/port80.o
LOAD build/hx20/RO/common/power_button.o
LOAD build/hx20/RO/common/printf.o
LOAD build/hx20/RO/common/pwm.o
LOAD build/hx20/RO/common/queue.o
LOAD build/hx20/RO/common/queue_policies.o
LOAD build/hx20/RO/common/sha256.o
LOAD build/hx20/RO/common/shared_mem.o
LOAD build/hx20/RO/common/spi_commands.o
LOAD build/hx20/RO/common/spi_flash.o
LOAD build/hx20/RO/common/spi_flash_reg.o
LOAD build/hx20/RO/common/switch.o
LOAD build/hx20/RO/common/system.o
LOAD build/hx20/RO/common/temp_sensor.o
LOAD build/hx20/RO/common/thermal.o
LOAD build/hx20/RO/common/throttle_ap.o
LOAD build/hx20/RO/common/timer.o
LOAD build/hx20/RO/common/uart_buffering.o
LOAD build/hx20/RO/common/uptime.o
LOAD build/hx20/RO/common/util.o
LOAD build/hx20/RO/common/version.o
LOAD build/hx20/RO/common/vstore.o
LOAD build/hx20/RO/core/cortex-m/cpu.o
LOAD build/hx20/RO/core/cortex-m/init.o
LOAD build/hx20/RO/core/cortex-m/ldivmod.o
LOAD build/hx20/RO/core/cortex-m/llsr.o
LOAD build/hx20/RO/core/cortex-m/panic.o
LOAD build/hx20/RO/core/cortex-m/switch.o
LOAD build/hx20/RO/core/cortex-m/task.o
LOAD build/hx20/RO/core/cortex-m/uldivmod.o
LOAD build/hx20/RO/core/cortex-m/vecttable.o
LOAD build/hx20/RO/core/cortex-m/watchdog.o
LOAD build/hx20/RO/driver/battery/smart.o
LOAD build/hx20/RO/driver/charger/isl9241.o
LOAD build/hx20/RO/driver/temp_sensor/f75303.o
LOAD build/hx20/RO/power/common.o
LOAD build/hx20/RO/power/host_sleep.o

.text           0x00000000000e1000    0x18088
                0x00000000000e1000                . = (. + 0x0)
 *(.text.vecttable)
 .text.vecttable
                0x00000000000e1000      0x2f0 build/hx20/RO/core/cortex-m/vecttable.o
                0x00000000000e1000                vectors
                0x00000000000e12f0                . = ALIGN (0x4)
                0x00000000000e12f0                __image_data_offset = .
 *(.rodata.ver)
 .rodata.ver    0x00000000000e12f0       0x30 build/hx20/RO/common/version.o
                0x00000000000e12f0                current_image_data
                0x00000000000e1320                . = ALIGN (0x4)
 *(.rodata.pstate)
                0x00000000000e1320                . = ALIGN (0x4)
 build/hx20/RO/core/cortex-m/init.o(.text)
 .text          0x00000000000e1320       0x68 build/hx20/RO/core/cortex-m/init.o
                0x00000000000e1320                reset
                0x00000000000e1378                __aeabi_unwind_cpp_pr0
                0x00000000000e1378                __aeabi_unwind_cpp_pr2
                0x00000000000e1378                __aeabi_unwind_cpp_pr1
                0x00000000000e1388                . = ALIGN (0x4)
 *(.after_init)
                0x00000000000e1388                __after_init_end = .
 *(.text*)
 .text.privacy_switches_check
                0x00000000000e1388       0x40 build/hx20/RO/baseboard/fwk/baseboard_host_commands.o
 .text.battery_percentage_control
                0x00000000000e13c8       0x88 build/hx20/RO/baseboard/fwk/battery.o
 .text.cmd_charging_limit_control
                0x00000000000e1450       0x6c build/hx20/RO/baseboard/fwk/battery.o
 .text.battery_get_info
                0x00000000000e14bc        0x8 build/hx20/RO/baseboard/fwk/battery.o
                0x00000000000e14bc                battery_get_info
 .text.board_cut_off_battery
                0x00000000000e14c4       0x58 build/hx20/RO/baseboard/fwk/battery.o
                0x00000000000e14c4                board_cut_off_battery
 .text.battery_charger_notify
                0x00000000000e151c       0x1c build/hx20/RO/baseboard/fwk/battery.o
                0x00000000000e151c                battery_charger_notify
 .text.battery_is_present
                0x00000000000e1538       0x50 build/hx20/RO/baseboard/fwk/battery.o
                0x00000000000e1538                battery_is_present
 .text.battery_customize
                0x00000000000e1588      0x1b8 build/hx20/RO/baseboard/fwk/battery.o
                0x00000000000e1588                battery_customize
 .text.board_battery_compensate_params
                0x00000000000e1740       0xf8 build/hx20/RO/baseboard/fwk/battery.o
                0x00000000000e1740                board_battery_compensate_params
 .text.set_diagnostic_leds
                0x00000000000e1838       0x18 build/hx20/RO/baseboard/fwk/diagnostics.o
 .text.diagnostic_check_tempsensor_deferred
                0x00000000000e1850       0xf4 build/hx20/RO/baseboard/fwk/diagnostics.o
 .text.diagnostics_check_devices
                0x00000000000e1944       0x10 build/hx20/RO/baseboard/fwk/diagnostics.o
 .text.set_standalone_mode
                0x00000000000e1954       0x1c build/hx20/RO/baseboard/fwk/diagnostics.o
                0x00000000000e1954                set_standalone_mode
 .text.get_standalone_mode
                0x00000000000e1970        0xc build/hx20/RO/baseboard/fwk/diagnostics.o
                0x00000000000e1970                get_standalone_mode
 .text.reset_diagnostics
                0x00000000000e197c       0x1c build/hx20/RO/baseboard/fwk/diagnostics.o
                0x00000000000e197c                reset_diagnostics
 .text.cancel_diagnostics
                0x00000000000e1998        0xc build/hx20/RO/baseboard/fwk/diagnostics.o
                0x00000000000e1998                cancel_diagnostics
 .text.diagnostics_tick
                0x00000000000e19a4       0xf8 build/hx20/RO/baseboard/fwk/diagnostics.o
                0x00000000000e19a4                diagnostics_tick
 .text.set_hw_diagnostic
                0x00000000000e1a9c       0x1c build/hx20/RO/baseboard/fwk/diagnostics.o
                0x00000000000e1a9c                set_hw_diagnostic
 .text.set_bios_diagnostic
                0x00000000000e1ab8       0x3c build/hx20/RO/baseboard/fwk/diagnostics.o
                0x00000000000e1ab8                set_bios_diagnostic
 .text.fan_get_enabled
                0x00000000000e1af4        0x6 build/hx20/RO/baseboard/fwk/fan.o
                0x00000000000e1af4                fan_get_enabled
 *fill*         0x00000000000e1afa        0x2 
 .text.fan_rpm_to_percent
                0x00000000000e1afc       0x74 build/hx20/RO/baseboard/fwk/fan.o
                0x00000000000e1afc                fan_rpm_to_percent
 .text.fan_set_duty
                0x00000000000e1b70       0x20 build/hx20/RO/baseboard/fwk/fan.o
                0x00000000000e1b70                fan_set_duty
 .text.fan_get_duty
                0x00000000000e1b90       0x14 build/hx20/RO/baseboard/fwk/fan.o
                0x00000000000e1b90                fan_get_duty
 .text.fan_get_rpm_mode
                0x00000000000e1ba4        0xc build/hx20/RO/baseboard/fwk/fan.o
                0x00000000000e1ba4                fan_get_rpm_mode
 .text.fan_set_rpm_mode
                0x00000000000e1bb0        0xc build/hx20/RO/baseboard/fwk/fan.o
                0x00000000000e1bb0                fan_set_rpm_mode
 .text.fan_get_rpm_actual
                0x00000000000e1bbc       0x4c build/hx20/RO/baseboard/fwk/fan.o
                0x00000000000e1bbc                fan_get_rpm_actual
 .text.hc_pwm_get_fan_actual_rpm
                0x00000000000e1c08       0x30 build/hx20/RO/baseboard/fwk/fan.o
 .text.fan_get_rpm_target
                0x00000000000e1c38       0x18 build/hx20/RO/baseboard/fwk/fan.o
                0x00000000000e1c38                fan_get_rpm_target
 .text.fan_set_rpm_target
                0x00000000000e1c50       0xe0 build/hx20/RO/baseboard/fwk/fan.o
                0x00000000000e1c50                fan_set_rpm_target
 .text.fan_set_enabled
                0x00000000000e1d30       0x54 build/hx20/RO/baseboard/fwk/fan.o
                0x00000000000e1d30                fan_set_enabled
 .text.fan_get_status
                0x00000000000e1d84       0x64 build/hx20/RO/baseboard/fwk/fan.o
                0x00000000000e1d84                fan_get_status
 .text.fan_is_stalled
                0x00000000000e1de8       0x22 build/hx20/RO/baseboard/fwk/fan.o
                0x00000000000e1de8                fan_is_stalled
 *fill*         0x00000000000e1e0a        0x2 
 .text.fan_channel_setup
                0x00000000000e1e0c       0x4c build/hx20/RO/baseboard/fwk/fan.o
                0x00000000000e1e0c                fan_channel_setup
 .text.check_flags_valid_header
                0x00000000000e1e58       0x5c build/hx20/RO/baseboard/fwk/flash_storage.o
                0x00000000000e1e58                check_flags_valid_header
 .text.flash_storage_load_defaults
                0x00000000000e1eb4       0x4c build/hx20/RO/baseboard/fwk/flash_storage.o
                0x00000000000e1eb4                flash_storage_load_defaults
 .text.flash_storage_initialize
                0x00000000000e1f00       0x48 build/hx20/RO/baseboard/fwk/flash_storage.o
                0x00000000000e1f00                flash_storage_initialize
 .text.flash_storage_update
                0x00000000000e1f48       0x34 build/hx20/RO/baseboard/fwk/flash_storage.o
                0x00000000000e1f48                flash_storage_update
 .text.flash_storage_commit
                0x00000000000e1f7c       0xbc build/hx20/RO/baseboard/fwk/flash_storage.o
                0x00000000000e1f7c                flash_storage_commit
 .text.flash_storage_get
                0x00000000000e2038       0x24 build/hx20/RO/baseboard/fwk/flash_storage.o
                0x00000000000e2038                flash_storage_get
 .text.cmd_flash_flags
                0x00000000000e205c       0x84 build/hx20/RO/baseboard/fwk/flash_storage.o
 .text.ps2mouse_powerstate_change
                0x00000000000e20e0       0x10 build/hx20/RO/baseboard/fwk/ps2mouse.o
 .text.retry_tp_read_evt_deferred
                0x00000000000e20f0       0x10 build/hx20/RO/baseboard/fwk/ps2mouse.o
 .text.send_data_byte
                0x00000000000e2100       0x26 build/hx20/RO/baseboard/fwk/ps2mouse.o
                0x00000000000e2100                send_data_byte
 *fill*         0x00000000000e2126        0x2 
 .text.send_movement_packet
                0x00000000000e2128       0x74 build/hx20/RO/baseboard/fwk/ps2mouse.o
                0x00000000000e2128                send_movement_packet
 .text.command_emumouse
                0x00000000000e219c      0x190 build/hx20/RO/baseboard/fwk/ps2mouse.o
 .text.send_aux_data_to_device
                0x00000000000e232c       0x14 build/hx20/RO/baseboard/fwk/ps2mouse.o
                0x00000000000e232c                send_aux_data_to_device
 .text.process_request
                0x00000000000e2340      0x17c build/hx20/RO/baseboard/fwk/ps2mouse.o
                0x00000000000e2340                process_request
 .text.touchpad_i2c_interrupt
                0x00000000000e24bc       0x30 build/hx20/RO/baseboard/fwk/ps2mouse.o
                0x00000000000e24bc                touchpad_i2c_interrupt
 .text.touchpad_interrupt
                0x00000000000e24ec       0x6c build/hx20/RO/baseboard/fwk/ps2mouse.o
                0x00000000000e24ec                touchpad_interrupt
 .text.set_ps2_mouse_emulation
                0x00000000000e2558       0x18 build/hx20/RO/baseboard/fwk/ps2mouse.o
                0x00000000000e2558                set_ps2_mouse_emulation
 .text.set_power
                0x00000000000e2570       0x1c build/hx20/RO/baseboard/fwk/ps2mouse.o
                0x00000000000e2570                set_power
 .text.set_reset
                0x00000000000e258c       0x1a build/hx20/RO/baseboard/fwk/ps2mouse.o
                0x00000000000e258c                set_reset
 *fill*         0x00000000000e25a6        0x2 
 .text.setup_touchpad
                0x00000000000e25a8       0x34 build/hx20/RO/baseboard/fwk/ps2mouse.o
                0x00000000000e25a8                setup_touchpad
 .text.read_touchpad_in_report
                0x00000000000e25dc      0x1c8 build/hx20/RO/baseboard/fwk/ps2mouse.o
                0x00000000000e25dc                read_touchpad_in_report
 .text.mouse_interrupt_handler_task
                0x00000000000e27a4      0x18c build/hx20/RO/baseboard/fwk/ps2mouse.o
                0x00000000000e27a4                mouse_interrupt_handler_task
 .text.vci_init
                0x00000000000e2930       0x48 build/hx20/RO/board/hx20/board.o
 .text.chassis_control_interrupt
                0x00000000000e2978        0x2 build/hx20/RO/board/hx20/board.o
                0x00000000000e2978                chassis_control_interrupt
 *fill*         0x00000000000e297a        0x2 
 .text.setup_fans
                0x00000000000e297c       0x54 build/hx20/RO/board/hx20/board.o
 .text.bkoff_on_deferred
                0x00000000000e29d0        0x8 build/hx20/RO/board/hx20/board.o
 .text.host_chassis_intrusion_control
                0x00000000000e29d8       0x6c build/hx20/RO/board/hx20/board.o
 .text.mainboard_power_button_interrupt
                0x00000000000e2a44       0x24 build/hx20/RO/board/hx20/board.o
                0x00000000000e2a44                mainboard_power_button_interrupt
 .text.charger_chips_init
                0x00000000000e2a68       0xb4 build/hx20/RO/board/hx20/board.o
 .text.charger_chips_init_retry
                0x00000000000e2b1c        0x4 build/hx20/RO/board/hx20/board.o
                0x00000000000e2b1c                charger_chips_init_retry
 .text.charger_update
                0x00000000000e2b20       0xa0 build/hx20/RO/board/hx20/board.o
                0x00000000000e2b20                charger_update
 .text.fingerprint_ctrl_detection_deferred
                0x00000000000e2bc0       0xa0 build/hx20/RO/board/hx20/board.o
 .text.check_chassis_open
                0x00000000000e2c60       0x7c build/hx20/RO/board/hx20/board.o
 .text.soc_signal_interrupt
                0x00000000000e2cdc       0x28 build/hx20/RO/board/hx20/board.o
                0x00000000000e2cdc                soc_signal_interrupt
 .text.mainboard_power_button_change_deferred
                0x00000000000e2d04       0x38 build/hx20/RO/board/hx20/board.o
 .text.fingerprint_power_button_change_deferred
                0x00000000000e2d3c       0x2c build/hx20/RO/board/hx20/board.o
 .text.fingerprint_power_button_interrupt
                0x00000000000e2d68       0x30 build/hx20/RO/board/hx20/board.o
                0x00000000000e2d68                fingerprint_power_button_interrupt
 .text.cmd_bbram
                0x00000000000e2d98       0x38 build/hx20/RO/board/hx20/board.o
 .text.uart_deepsleep_interrupt
                0x00000000000e2dd0        0x2 build/hx20/RO/board/hx20/board.o
 *fill*         0x00000000000e2dd2        0x2 
 .text.board_config_pre_init
                0x00000000000e2dd4       0x20 build/hx20/RO/board/hx20/board.o
                0x00000000000e2dd4                board_config_pre_init
 .text.reconfigure_kbbl_pwm_frquency
                0x00000000000e2df4       0x30 build/hx20/RO/board/hx20/board.o
                0x00000000000e2df4                reconfigure_kbbl_pwm_frquency
 .text.board_i2c_p2c
                0x00000000000e2e24       0x24 build/hx20/RO/board/hx20/board.o
                0x00000000000e2e24                board_i2c_p2c
 .text.spi_mux_control
                0x00000000000e2e48       0x28 build/hx20/RO/board/hx20/board.o
                0x00000000000e2e48                spi_mux_control
 .text.cmd_spimux
                0x00000000000e2e70       0x26 build/hx20/RO/board/hx20/board.o
 *fill*         0x00000000000e2e96        0x2 
 .text.poweron_reason_powerbtn
                0x00000000000e2e98        0xc build/hx20/RO/board/hx20/board.o
                0x00000000000e2e98                poweron_reason_powerbtn
 .text.board_power_off
                0x00000000000e2ea4       0x24 build/hx20/RO/board/hx20/board.o
                0x00000000000e2ea4                board_power_off
 .text.cancel_board_power_off
                0x00000000000e2ec8       0x20 build/hx20/RO/board/hx20/board.o
                0x00000000000e2ec8                cancel_board_power_off
 .text.ac_boot_status
                0x00000000000e2ee8       0x10 build/hx20/RO/board/hx20/board.o
                0x00000000000e2ee8                ac_boot_status
 .text.board_extpower
                0x00000000000e2ef8       0x50 build/hx20/RO/board/hx20/board.o
 .text.charge_gate_onoff
                0x00000000000e2f48       0xa4 build/hx20/RO/board/hx20/board.o
                0x00000000000e2f48                charge_gate_onoff
 .text.charger_psys_enable
                0x00000000000e2fec       0xb0 build/hx20/RO/board/hx20/board.o
                0x00000000000e2fec                charger_psys_enable
 .text.board_power_off_deferred
                0x00000000000e309c       0x4c build/hx20/RO/board/hx20/board.o
 .text.cmd_ecoff
                0x00000000000e30e8        0x6 build/hx20/RO/board/hx20/board.o
 *fill*         0x00000000000e30ee        0x2 
 .text.board_chipset_shutdown
                0x00000000000e30f0       0x2c build/hx20/RO/board/hx20/board.o
 .text.board_chipset_resume
                0x00000000000e311c       0x28 build/hx20/RO/board/hx20/board.o
 .text.board_chipset_suspend
                0x00000000000e3144       0x30 build/hx20/RO/board/hx20/board.o
 .text.board_hibernate
                0x00000000000e3174        0x6 build/hx20/RO/board/hx20/board.o
                0x00000000000e3174                board_hibernate
 .text.board_hibernate_late
                0x00000000000e317a        0x8 build/hx20/RO/board/hx20/board.o
                0x00000000000e317a                board_hibernate_late
 *fill*         0x00000000000e3182        0x2 
 .text.get_hardware_id
                0x00000000000e3184       0x60 build/hx20/RO/board/hx20/board.o
                0x00000000000e3184                get_hardware_id
 .text.board_get_version
                0x00000000000e31e4       0x18 build/hx20/RO/board/hx20/board.o
                0x00000000000e31e4                board_get_version
 .text.board_init
                0x00000000000e31fc       0x56 build/hx20/RO/board/hx20/board.o
 *fill*         0x00000000000e3252        0x2 
 .text.board_chipset_startup
                0x00000000000e3254       0x2c build/hx20/RO/board/hx20/board.o
 .text.check_deferred_time
                0x00000000000e3280       0x6c build/hx20/RO/board/hx20/board.o
                0x00000000000e3280                check_deferred_time
 .text.prochot_monitor
                0x00000000000e32ec       0x58 build/hx20/RO/board/hx20/board.o
                0x00000000000e32ec                prochot_monitor
 .text.set_pl_limits
                0x00000000000e3344       0x22 build/hx20/RO/board/hx20/cpu_power.o
                0x00000000000e3344                set_pl_limits
 *fill*         0x00000000000e3366        0x2 
 .text.update_soc_power_limit
                0x00000000000e3368       0xe8 build/hx20/RO/board/hx20/cpu_power.o
                0x00000000000e3368                update_soc_power_limit
 .text.update_soc_power_limit_hook
                0x00000000000e3450        0x8 build/hx20/RO/board/hx20/cpu_power.o
                0x00000000000e3450                update_soc_power_limit_hook
 .text.cmd_cpupower
                0x00000000000e3458       0xf0 build/hx20/RO/board/hx20/cpu_power.o
 .text.pd0_chip_interrupt_deferred
                0x00000000000e3548        0xa build/hx20/RO/board/hx20/cypress5525.o
                0x00000000000e3548                pd0_chip_interrupt_deferred
 .text.pd1_chip_interrupt_deferred
                0x00000000000e3552        0xa build/hx20/RO/board/hx20/cypress5525.o
                0x00000000000e3552                pd1_chip_interrupt_deferred
 .text.update_power_limit_deferred
                0x00000000000e355c        0x8 build/hx20/RO/board/hx20/cypress5525.o
 .text.pd_bb_powerdown_deferred
                0x00000000000e3564       0x30 build/hx20/RO/board/hx20/cypress5525.o
                0x00000000000e3564                pd_bb_powerdown_deferred
 .text.set_pd_fw_update
                0x00000000000e3594        0xc build/hx20/RO/board/hx20/cypress5525.o
                0x00000000000e3594                set_pd_fw_update
 .text.pd_extpower_is_present
                0x00000000000e35a0       0x44 build/hx20/RO/board/hx20/cypress5525.o
                0x00000000000e35a0                pd_extpower_is_present
 .text.pd_extpower_deferred
                0x00000000000e35e4       0x28 build/hx20/RO/board/hx20/cypress5525.o
 .text.pd_extpower_init
                0x00000000000e360c       0x2c build/hx20/RO/board/hx20/cypress5525.o
                0x00000000000e360c                pd_extpower_init
 .text.pd_extpower_is_present_interrupt
                0x00000000000e3638       0x10 build/hx20/RO/board/hx20/cypress5525.o
                0x00000000000e3638                pd_extpower_is_present_interrupt
 .text.cypd_write_reg_block
                0x00000000000e3648       0x40 build/hx20/RO/board/hx20/cypress5525.o
                0x00000000000e3648                cypd_write_reg_block
 .text.cypd_write_reg16
                0x00000000000e3688       0x44 build/hx20/RO/board/hx20/cypress5525.o
                0x00000000000e3688                cypd_write_reg16
 .text.cmd_cypd_msg
                0x00000000000e36cc       0xb8 build/hx20/RO/board/hx20/cypress5525.o
 .text.cypd_write_reg8
                0x00000000000e3784       0x44 build/hx20/RO/board/hx20/cypress5525.o
                0x00000000000e3784                cypd_write_reg8
 .text.cypd_read_reg_block
                0x00000000000e37c8       0x40 build/hx20/RO/board/hx20/cypress5525.o
                0x00000000000e37c8                cypd_read_reg_block
 .text.cypd_read_reg16
                0x00000000000e3808       0x44 build/hx20/RO/board/hx20/cypress5525.o
                0x00000000000e3808                cypd_read_reg16
 .text.cypd_read_reg8
                0x00000000000e384c       0x44 build/hx20/RO/board/hx20/cypress5525.o
                0x00000000000e384c                cypd_read_reg8
 .text.cypd_get_int
                0x00000000000e3890       0x2c build/hx20/RO/board/hx20/cypress5525.o
                0x00000000000e3890                cypd_get_int
 .text.cypd_clear_int
                0x00000000000e38bc       0x30 build/hx20/RO/board/hx20/cypress5525.o
                0x00000000000e38bc                cypd_clear_int
 .text.cyp5525_reset
                0x00000000000e38ec        0xa build/hx20/RO/board/hx20/cypress5525.o
                0x00000000000e38ec                cyp5525_reset
 *fill*         0x00000000000e38f6        0x2 
 .text.cyp5225_wait_for_ack
                0x00000000000e38f8       0x58 build/hx20/RO/board/hx20/cypress5525.o
                0x00000000000e38f8                cyp5225_wait_for_ack
 .text.cypd_write_reg8_wait_ack
                0x00000000000e3950       0x5c build/hx20/RO/board/hx20/cypress5525.o
                0x00000000000e3950                cypd_write_reg8_wait_ack
 .text.cypd_write_reg16_wait_ack
                0x00000000000e39ac       0x64 build/hx20/RO/board/hx20/cypress5525.o
                0x00000000000e39ac                cypd_write_reg16_wait_ack
 .text.cypd_set_power_state
                0x00000000000e3a10       0x34 build/hx20/RO/board/hx20/cypress5525.o
                0x00000000000e3a10                cypd_set_power_state
 .text.cypd_charger_init_complete
                0x00000000000e3a44        0xc build/hx20/RO/board/hx20/cypress5525.o
                0x00000000000e3a44                cypd_charger_init_complete
 .text.cypd_update_power
                0x00000000000e3a50       0x24 build/hx20/RO/board/hx20/cypress5525.o
                0x00000000000e3a50                cypd_update_power
 .text.cypd_update_power_status
                0x00000000000e3a74       0x4c build/hx20/RO/board/hx20/cypress5525.o
                0x00000000000e3a74                cypd_update_power_status
 .text.enable_compliance_mode
                0x00000000000e3ac0       0x44 build/hx20/RO/board/hx20/cypress5525.o
                0x00000000000e3ac0                enable_compliance_mode
 .text.cmd_cypd_bb
                0x00000000000e3b04       0x88 build/hx20/RO/board/hx20/cypress5525.o
 .text.entry_tbt_mode
                0x00000000000e3b8c       0x20 build/hx20/RO/board/hx20/cypress5525.o
                0x00000000000e3b8c                entry_tbt_mode
 .text.exit_tbt_mode
                0x00000000000e3bac       0x20 build/hx20/RO/board/hx20/cypress5525.o
                0x00000000000e3bac                exit_tbt_mode
 .text.check_tbt_mode
                0x00000000000e3bcc       0x20 build/hx20/RO/board/hx20/cypress5525.o
                0x00000000000e3bcc                check_tbt_mode
 .text.cypd_bb_retimer_cmd
                0x00000000000e3bec       0x1c build/hx20/RO/board/hx20/cypress5525.o
                0x00000000000e3bec                cypd_bb_retimer_cmd
 .text.update_system_power_state
                0x00000000000e3c08       0x20 build/hx20/RO/board/hx20/cypress5525.o
                0x00000000000e3c08                update_system_power_state
 .text.cyp5525_setup
                0x00000000000e3c28       0xf0 build/hx20/RO/board/hx20/cypress5525.o
                0x00000000000e3c28                cyp5525_setup
 .text.cypd_set_source_pdo
                0x00000000000e3d18       0x78 build/hx20/RO/board/hx20/cypress5525.o
                0x00000000000e3d18                cypd_set_source_pdo
 .text.cmd_cypd_control
                0x00000000000e3d90      0x1f8 build/hx20/RO/board/hx20/cypress5525.o
 .text.cypd_send_msg
                0x00000000000e3f88       0x74 build/hx20/RO/board/hx20/cypress5525.o
                0x00000000000e3f88                cypd_send_msg
 .text.cypd_response_get_battery_capability
                0x00000000000e3ffc       0xe0 build/hx20/RO/board/hx20/cypress5525.o
                0x00000000000e3ffc                cypd_response_get_battery_capability
 .text.cypd_response_get_battery_status
                0x00000000000e40dc       0xc8 build/hx20/RO/board/hx20/cypress5525.o
                0x00000000000e40dc                cypd_response_get_battery_status
 .text.cypd_handle_extend_msg
                0x00000000000e41a4       0xd8 build/hx20/RO/board/hx20/cypress5525.o
                0x00000000000e41a4                cypd_handle_extend_msg
 .text.cypd_update_port_state
                0x00000000000e427c      0x1b8 build/hx20/RO/board/hx20/cypress5525.o
                0x00000000000e427c                cypd_update_port_state
 .text.cypd_print_version
                0x00000000000e4434       0x34 build/hx20/RO/board/hx20/cypress5525.o
                0x00000000000e4434                cypd_print_version
 .text.cyp5525_get_version
                0x00000000000e4468       0x50 build/hx20/RO/board/hx20/cypress5525.o
                0x00000000000e4468                cyp5525_get_version
 .text.cypd_enque_evt
                0x00000000000e44b8        0xa build/hx20/RO/board/hx20/cypress5525.o
                0x00000000000e44b8                cypd_enque_evt
 *fill*         0x00000000000e44c2        0x2 
 .text.cypd_set_retimer_power
                0x00000000000e44c4       0x1c build/hx20/RO/board/hx20/cypress5525.o
                0x00000000000e44c4                cypd_set_retimer_power
 .text.cypd_set_power_active
                0x00000000000e44e0        0x8 build/hx20/RO/board/hx20/cypress5525.o
                0x00000000000e44e0                cypd_set_power_active
 .text.cypd_handle_state
                0x00000000000e44e8      0x130 build/hx20/RO/board/hx20/cypress5525.o
                0x00000000000e44e8                cypd_handle_state
 .text.pd0_chip_interrupt
                0x00000000000e4618       0x3c build/hx20/RO/board/hx20/cypress5525.o
                0x00000000000e4618                pd0_chip_interrupt
 .text.pd1_chip_interrupt
                0x00000000000e4654        0x4 build/hx20/RO/board/hx20/cypress5525.o
                0x00000000000e4654                pd1_chip_interrupt
 .text.soc_plt_reset_interrupt
                0x00000000000e4658        0x2 build/hx20/RO/board/hx20/cypress5525.o
                0x00000000000e4658                soc_plt_reset_interrupt
 *fill*         0x00000000000e465a        0x2 
 .text.cypd_reinitialize
                0x00000000000e465c       0x24 build/hx20/RO/board/hx20/cypress5525.o
                0x00000000000e465c                cypd_reinitialize
 .text.cypd_get_pps_power_budget
                0x00000000000e4680        0x4 build/hx20/RO/board/hx20/cypress5525.o
                0x00000000000e4680                cypd_get_pps_power_budget
 .text.pd_send_host_event
                0x00000000000e4684        0x2 build/hx20/RO/board/hx20/cypress5525.o
                0x00000000000e4684                pd_send_host_event
 .text.board_get_usb_pd_port_count
                0x00000000000e4686        0x4 build/hx20/RO/board/hx20/cypress5525.o
                0x00000000000e4686                board_get_usb_pd_port_count
 *fill*         0x00000000000e468a        0x2 
 .text.pd_get_power_role
                0x00000000000e468c       0x10 build/hx20/RO/board/hx20/cypress5525.o
                0x00000000000e468c                pd_get_power_role
 .text.pd_is_connected
                0x00000000000e469c       0x18 build/hx20/RO/board/hx20/cypress5525.o
                0x00000000000e469c                pd_is_connected
 .text.pd_request_power_swap
                0x00000000000e46b4       0x14 build/hx20/RO/board/hx20/cypress5525.o
                0x00000000000e46b4                pd_request_power_swap
 .text.pd_set_new_power_request
                0x00000000000e46c8       0x14 build/hx20/RO/board/hx20/cypress5525.o
                0x00000000000e46c8                pd_set_new_power_request
 .text.board_set_active_charge_port
                0x00000000000e46dc       0xe8 build/hx20/RO/board/hx20/cypress5525.o
                0x00000000000e46dc                board_set_active_charge_port
 .text.board_set_charge_limit
                0x00000000000e47c4       0x48 build/hx20/RO/board/hx20/cypress5525.o
                0x00000000000e47c4                board_set_charge_limit
 .text.print_pd_response_code
                0x00000000000e480c       0x48 build/hx20/RO/board/hx20/cypress5525.o
                0x00000000000e480c                print_pd_response_code
 .text.cyp5525_port_int
                0x00000000000e4854      0x15c build/hx20/RO/board/hx20/cypress5525.o
                0x00000000000e4854                cyp5525_port_int
 .text.cyp5525_device_int
                0x00000000000e49b0       0x68 build/hx20/RO/board/hx20/cypress5525.o
                0x00000000000e49b0                cyp5525_device_int
 .text.cyp5525_interrupt
                0x00000000000e4a18       0x66 build/hx20/RO/board/hx20/cypress5525.o
                0x00000000000e4a18                cyp5525_interrupt
 *fill*         0x00000000000e4a7e        0x2 
 .text.cypd_interrupt_handler_task
                0x00000000000e4a80      0x134 build/hx20/RO/board/hx20/cypress5525.o
                0x00000000000e4a80                cypd_interrupt_handler_task
 .text.cypd_print_buff
                0x00000000000e4bb4       0x40 build/hx20/RO/board/hx20/cypress5525.o
                0x00000000000e4bb4                cypd_print_buff
 .text.cmd_cypd_get_status
                0x00000000000e4bf4      0x4b0 build/hx20/RO/board/hx20/cypress5525.o
 .text.flash_notified
                0x00000000000e50a4       0xb4 build/hx20/RO/board/hx20/host_command_customization.o
 .text.host_custom_command_hello
                0x00000000000e5158       0x80 build/hx20/RO/board/hx20/host_command_customization.o
 .text.disable_ps2_mouse_emulation
                0x00000000000e51d8       0x14 build/hx20/RO/board/hx20/host_command_customization.o
 .text.cmd_diagnosis
                0x00000000000e51ec        0xe build/hx20/RO/board/hx20/host_command_customization.o
 .text.update_keyboard_matrix
                0x00000000000e51fa       0xf8 build/hx20/RO/board/hx20/host_command_customization.o
 .text.bb_retimer_control
                0x00000000000e52f2       0x48 build/hx20/RO/board/hx20/host_command_customization.o
 *fill*         0x00000000000e533a        0x2 
 .text.chassis_open_check
                0x00000000000e533c       0x34 build/hx20/RO/board/hx20/host_command_customization.o
 .text.standalone_mode
                0x00000000000e5370        0xe build/hx20/RO/board/hx20/host_command_customization.o
 *fill*         0x00000000000e537e        0x2 
 .text.sci_enable
                0x00000000000e5380       0x60 build/hx20/RO/board/hx20/host_command_customization.o
 .text.factory_mode
                0x00000000000e53e0       0x58 build/hx20/RO/board/hx20/host_command_customization.o
 .text.pos_get_state
                0x00000000000e5438       0x10 build/hx20/RO/board/hx20/host_command_customization.o
                0x00000000000e5438                pos_get_state
 .text.hid_startup
                0x00000000000e5448        0xc build/hx20/RO/board/hx20/i2c_hid_mediakeys.o
 .text.update_hid_key
                0x00000000000e5454       0x34 build/hx20/RO/board/hx20/i2c_hid_mediakeys.o
                0x00000000000e5454                update_hid_key
 .text.i2c_hid_mediakeys_init
                0x00000000000e5488       0x10 build/hx20/RO/board/hx20/i2c_hid_mediakeys.o
                0x00000000000e5488                i2c_hid_mediakeys_init
 .text.i2c_hid_process
                0x00000000000e5498      0x13c build/hx20/RO/board/hx20/i2c_hid_mediakeys.o
                0x00000000000e5498                i2c_hid_process
 .text.i2c_data_received
                0x00000000000e55d4       0x18 build/hx20/RO/board/hx20/i2c_hid_mediakeys.o
                0x00000000000e55d4                i2c_data_received
 .text.i2c_set_response
                0x00000000000e55ec       0x22 build/hx20/RO/board/hx20/i2c_hid_mediakeys.o
                0x00000000000e55ec                i2c_set_response
 *fill*         0x00000000000e560e        0x2 
 .text.hid_irq_to_host
                0x00000000000e5610       0x58 build/hx20/RO/board/hx20/i2c_hid_mediakeys.o
                0x00000000000e5610                hid_irq_to_host
 .text.hid_handler_task
                0x00000000000e5668       0xac build/hx20/RO/board/hx20/i2c_hid_mediakeys.o
                0x00000000000e5668                hid_handler_task
 .text.caps_suspend
                0x00000000000e5714        0x8 build/hx20/RO/board/hx20/keyboard_customization.o
                0x00000000000e5714                caps_suspend
 .text.hx20_kblight_enable
                0x00000000000e571c        0xe build/hx20/RO/board/hx20/keyboard_customization.o
                0x00000000000e571c                hx20_kblight_enable
 .text.hx20_kblight_get_brightness
                0x00000000000e572a        0x6 build/hx20/RO/board/hx20/keyboard_customization.o
 .text.hx20_kblight_set_brightness
                0x00000000000e5730        0xe build/hx20/RO/board/hx20/keyboard_customization.o
 .text.hx20_kblight_init
                0x00000000000e573e        0xe build/hx20/RO/board/hx20/keyboard_customization.o
 .text.fnkey_shutdown
                0x00000000000e574c       0x2c build/hx20/RO/board/hx20/keyboard_customization.o
                0x00000000000e574c                fnkey_shutdown
 .text.fp_power_button_deferred
                0x00000000000e5778       0x10 build/hx20/RO/board/hx20/keyboard_customization.o
 .text.fnkey_startup
                0x00000000000e5788       0x30 build/hx20/RO/board/hx20/keyboard_customization.o
                0x00000000000e5788                fnkey_startup
 .text.caps_resume
                0x00000000000e57b8       0x14 build/hx20/RO/board/hx20/keyboard_customization.o
                0x00000000000e57b8                caps_resume
 .text.get_scancode_set2
                0x00000000000e57cc       0x1c build/hx20/RO/board/hx20/keyboard_customization.o
                0x00000000000e57cc                get_scancode_set2
 .text.set_scancode_set2
                0x00000000000e57e8       0x18 build/hx20/RO/board/hx20/keyboard_customization.o
                0x00000000000e57e8                set_scancode_set2
 .text.hx20_8042_led_control
                0x00000000000e5800       0x18 build/hx20/RO/board/hx20/keyboard_customization.o
                0x00000000000e5800                hx20_8042_led_control
 .text.board_kblight_init
                0x00000000000e5818       0x38 build/hx20/RO/board/hx20/keyboard_customization.o
                0x00000000000e5818                board_kblight_init
 .text.fn_table_media_set
                0x00000000000e5850       0x20 build/hx20/RO/board/hx20/keyboard_customization.o
                0x00000000000e5850                fn_table_media_set
 .text.fn_table_set
                0x00000000000e5870       0x28 build/hx20/RO/board/hx20/keyboard_customization.o
                0x00000000000e5870                fn_table_set
 .text.hotkey_F1_F12
                0x00000000000e5898      0x19c build/hx20/RO/board/hx20/keyboard_customization.o
                0x00000000000e5898                hotkey_F1_F12
 .text.hotkey_special_key
                0x00000000000e5a34       0x9e build/hx20/RO/board/hx20/keyboard_customization.o
                0x00000000000e5a34                hotkey_special_key
 *fill*         0x00000000000e5ad2        0x2 
 .text.functional_hotkey
                0x00000000000e5ad4       0xf4 build/hx20/RO/board/hx20/keyboard_customization.o
                0x00000000000e5ad4                functional_hotkey
 .text.keyboard_scancode_callback
                0x00000000000e5bc8       0x68 build/hx20/RO/board/hx20/keyboard_customization.o
                0x00000000000e5bc8                keyboard_scancode_callback
 .text.factory_power_button
                0x00000000000e5c30       0x30 build/hx20/RO/board/hx20/keyboard_customization.o
                0x00000000000e5c30                factory_power_button
 .text.factory_setting
                0x00000000000e5c60       0x24 build/hx20/RO/board/hx20/keyboard_customization.o
                0x00000000000e5c60                factory_setting
 .text.factory_status
                0x00000000000e5c84        0xc build/hx20/RO/board/hx20/keyboard_customization.o
                0x00000000000e5c84                factory_status
 .text.set_active_port_color
                0x00000000000e5c90       0x56 build/hx20/RO/board/hx20/led.o
 *fill*         0x00000000000e5ce6        0x2 
 .text.fp_led_level_control
                0x00000000000e5ce8       0x60 build/hx20/RO/board/hx20/led.o
 .text.set_pwr_led_color
                0x00000000000e5d48       0x84 build/hx20/RO/board/hx20/led.o
                0x00000000000e5d48                set_pwr_led_color
 .text.enable_pwr_breath
                0x00000000000e5dcc       0x8c build/hx20/RO/board/hx20/led.o
                0x00000000000e5dcc                enable_pwr_breath
 .text.led_tick
                0x00000000000e5e58      0x140 build/hx20/RO/board/hx20/led.o
 .text.led_configure
                0x00000000000e5f98       0x5c build/hx20/RO/board/hx20/led.o
 .text.led_get_brightness_range
                0x00000000000e5ff4       0x10 build/hx20/RO/board/hx20/led.o
                0x00000000000e5ff4                led_get_brightness_range
 .text.led_set_brightness
                0x00000000000e6004       0x90 build/hx20/RO/board/hx20/led.o
                0x00000000000e6004                led_set_brightness
 .text.power_button_enable_led
                0x00000000000e6094        0xc build/hx20/RO/board/hx20/led.o
                0x00000000000e6094                power_button_enable_led
 .text.peci_Wr_Pkg_Config
                0x00000000000e60a0       0x84 build/hx20/RO/board/hx20/peci_customization.o
                0x00000000000e60a0                peci_Wr_Pkg_Config
 .text.peci_update_PL1
                0x00000000000e6124       0x28 build/hx20/RO/board/hx20/peci_customization.o
                0x00000000000e6124                peci_update_PL1
 .text.peci_update_PL2
                0x00000000000e614c       0x24 build/hx20/RO/board/hx20/peci_customization.o
                0x00000000000e614c                peci_update_PL2
 .text.peci_update_PL4
                0x00000000000e6170       0x20 build/hx20/RO/board/hx20/peci_customization.o
                0x00000000000e6170                peci_update_PL4
 .text.peci_update_PsysPL2
                0x00000000000e6190       0x28 build/hx20/RO/board/hx20/peci_customization.o
                0x00000000000e6190                peci_update_PsysPL2
 .text.stop_read_peci_temp
                0x00000000000e61b8       0x60 build/hx20/RO/board/hx20/peci_customization.o
                0x00000000000e61b8                stop_read_peci_temp
 .text.hc_config_powerbtn_x86
                0x00000000000e6218       0x14 build/hx20/RO/board/hx20/power_button_x86.o
 .text.power_button_pulse_setting_reset
                0x00000000000e622c        0xc build/hx20/RO/board/hx20/power_button_x86.o
 .text.power_button_released
                0x00000000000e6238       0x24 build/hx20/RO/board/hx20/power_button_x86.o
 .text.powerbtn_x86_init
                0x00000000000e625c       0x18 build/hx20/RO/board/hx20/power_button_x86.o
 .text.set_pwrbtn_to_pch
                0x00000000000e6274       0x60 build/hx20/RO/board/hx20/power_button_x86.o
 .text.power_button_pulse_setting_restore_state
                0x00000000000e62d4       0x2c build/hx20/RO/board/hx20/power_button_x86.o
 .text.power_button_pulse_setting_preserve_state
                0x00000000000e6300       0x14 build/hx20/RO/board/hx20/power_button_x86.o
 .text.powerbtn_x86_changed
                0x00000000000e6314       0xb4 build/hx20/RO/board/hx20/power_button_x86.o
 .text.power_button_pch_release
                0x00000000000e63c8       0x2c build/hx20/RO/board/hx20/power_button_x86.o
                0x00000000000e63c8                power_button_pch_release
 .text.power_button_pch_pulse
                0x00000000000e63f4       0x50 build/hx20/RO/board/hx20/power_button_x86.o
                0x00000000000e63f4                power_button_pch_pulse
 .text.powerbtn_x86_lid_change
                0x00000000000e6444       0x28 build/hx20/RO/board/hx20/power_button_x86.o
 .text.power_button_simulate_press
                0x00000000000e646c       0x48 build/hx20/RO/board/hx20/power_button_x86.o
                0x00000000000e646c                power_button_simulate_press
 .text.power_button_batt_cutoff
                0x00000000000e64b4        0xc build/hx20/RO/board/hx20/power_button_x86.o
                0x00000000000e64b4                power_button_batt_cutoff
 .text.power_button_task
                0x00000000000e64c0      0x398 build/hx20/RO/board/hx20/power_button_x86.o
                0x00000000000e64c0                power_button_task
 .text.set_ap_reboot_delay
                0x00000000000e6858       0x24 build/hx20/RO/board/hx20/power_sequence.o
 .text.check_s0ix_statsus
                0x00000000000e687c       0x60 build/hx20/RO/board/hx20/power_sequence.o
 .text.vpro_control
                0x00000000000e68dc       0x38 build/hx20/RO/board/hx20/power_sequence.o
 .text.s0ix_status_handle
                0x00000000000e6914       0x2c build/hx20/RO/board/hx20/power_sequence.o
                0x00000000000e6914                s0ix_status_handle
 .text.pending_retimer_init
                0x00000000000e6940        0xc build/hx20/RO/board/hx20/power_sequence.o
                0x00000000000e6940                pending_retimer_init
 .text.chipset_handle_espi_reset_assert
                0x00000000000e694c       0x20 build/hx20/RO/board/hx20/power_sequence.o
                0x00000000000e694c                chipset_handle_espi_reset_assert
 .text.keep_pch_power
                0x00000000000e696c       0x64 build/hx20/RO/board/hx20/power_sequence.o
                0x00000000000e696c                keep_pch_power
 .text.chipset_force_g3
                0x00000000000e69d0       0x84 build/hx20/RO/board/hx20/power_sequence.o
 .text.chipset_force_shutdown
                0x00000000000e6a54       0x48 build/hx20/RO/board/hx20/power_sequence.o
                0x00000000000e6a54                chipset_force_shutdown
 .text.s5_power_up_control
                0x00000000000e6a9c       0x2c build/hx20/RO/board/hx20/power_sequence.o
                0x00000000000e6a9c                s5_power_up_control
 .text.me_control
                0x00000000000e6ac8       0x44 build/hx20/RO/board/hx20/power_sequence.o
 .text.chipset_reset
                0x00000000000e6b0c        0x2 build/hx20/RO/board/hx20/power_sequence.o
                0x00000000000e6b0c                chipset_reset
 .text.chipset_throttle_cpu
                0x00000000000e6b0e       0x1e build/hx20/RO/board/hx20/power_sequence.o
                0x00000000000e6b0e                chipset_throttle_cpu
 .text.power_chipset_init
                0x00000000000e6b2c        0xa build/hx20/RO/board/hx20/power_sequence.o
                0x00000000000e6b2c                power_chipset_init
 *fill*         0x00000000000e6b36        0x2 
 .text.boot_ap_on_g3
                0x00000000000e6b38       0x1c build/hx20/RO/board/hx20/power_sequence.o
                0x00000000000e6b38                boot_ap_on_g3
 .text.me_gpio_change
                0x00000000000e6b54       0x1c build/hx20/RO/board/hx20/power_sequence.o
                0x00000000000e6b54                me_gpio_change
 .text.board_chipset_power_on
                0x00000000000e6b70       0xec build/hx20/RO/board/hx20/power_sequence.o
                0x00000000000e6b70                board_chipset_power_on
 .text.power_handle_state
                0x00000000000e6c5c      0x364 build/hx20/RO/board/hx20/power_sequence.o
                0x00000000000e6c5c                power_handle_state
 .text.update_me_change
                0x00000000000e6fc0        0xc build/hx20/RO/board/hx20/power_sequence.o
                0x00000000000e6fc0                update_me_change
 .text.ucsi_set_debug
                0x00000000000e6fcc        0xc build/hx20/RO/board/hx20/ucsi.o
                0x00000000000e6fcc                ucsi_set_debug
 .text.ucsi_set_next_poll
                0x00000000000e6fd8       0x24 build/hx20/RO/board/hx20/ucsi.o
                0x00000000000e6fd8                ucsi_set_next_poll
 .text.ucsi_write_tunnel
                0x00000000000e6ffc      0x1ac build/hx20/RO/board/hx20/ucsi.o
                0x00000000000e6ffc                ucsi_write_tunnel
 .text.ucsi_read_tunnel
                0x00000000000e71a8      0x1d0 build/hx20/RO/board/hx20/ucsi.o
                0x00000000000e71a8                ucsi_read_tunnel
 .text.cyp5525_ucsi_startup
                0x00000000000e7378       0x98 build/hx20/RO/board/hx20/ucsi.o
                0x00000000000e7378                cyp5525_ucsi_startup
 .text.check_ucsi_event_from_host
                0x00000000000e7410      0x244 build/hx20/RO/board/hx20/ucsi.o
                0x00000000000e7410                check_ucsi_event_from_host
 .text.start_single_and_wait
                0x00000000000e7654       0x64 build/hx20/RO/chip/mchp/adc.o
 .text.adc_init
                0x00000000000e76b8       0x50 build/hx20/RO/chip/mchp/adc.o
 .text.adc_read_channel
                0x00000000000e7708       0x60 build/hx20/RO/chip/mchp/adc.o
                0x00000000000e7708                adc_read_channel
 .text.adc_interrupt
                0x00000000000e7768       0x44 build/hx20/RO/chip/mchp/adc.o
                0x00000000000e7768                adc_interrupt
 .text.irq_78_handler
                0x00000000000e77ac       0x14 build/hx20/RO/chip/mchp/adc.o
                0x00000000000e77ac                irq_78_handler
 .text.clock_turbo_disable
                0x00000000000e77c0       0x10 build/hx20/RO/chip/mchp/clock.o
 .text.clock_get_freq
                0x00000000000e77d0        0x8 build/hx20/RO/chip/mchp/clock.o
                0x00000000000e77d0                clock_get_freq
 .text.clock_init
                0x00000000000e77d8       0x34 build/hx20/RO/chip/mchp/clock.o
                0x00000000000e77d8                clock_init
 .text.htimer_init
                0x00000000000e780c       0x30 build/hx20/RO/chip/mchp/clock.o
                0x00000000000e780c                htimer_init
 .text.system_set_htimer_alarm
                0x00000000000e783c       0x54 build/hx20/RO/chip/mchp/clock.o
                0x00000000000e783c                system_set_htimer_alarm
 .text.dma_disable
                0x00000000000e7890       0x30 build/hx20/RO/chip/mchp/dma.o
                0x00000000000e7890                dma_disable
 .text.dma_disable_all
                0x00000000000e78c0       0x3c build/hx20/RO/chip/mchp/dma.o
                0x00000000000e78c0                dma_disable_all
 .text.dma_init
                0x00000000000e78fc       0x24 build/hx20/RO/chip/mchp/dma.o
                0x00000000000e78fc                dma_init
 .text.dma_clear_isr
                0x00000000000e7920       0x14 build/hx20/RO/chip/mchp/dma.o
                0x00000000000e7920                dma_clear_isr
 .text.dma_cfg_buffers
                0x00000000000e7934       0x20 build/hx20/RO/chip/mchp/dma.o
                0x00000000000e7934                dma_cfg_buffers
 .text.dma_cfg_xfr
                0x00000000000e7954       0x3c build/hx20/RO/chip/mchp/dma.o
                0x00000000000e7954                dma_cfg_xfr
 .text.dma_clr_chan
                0x00000000000e7990       0x3c build/hx20/RO/chip/mchp/dma.o
                0x00000000000e7990                dma_clr_chan
 .text.dma_run  0x00000000000e79cc       0x24 build/hx20/RO/chip/mchp/dma.o
                0x00000000000e79cc                dma_run
 .text.espi_vw_get_signal_index
                0x00000000000e79f0       0x20 build/hx20/RO/chip/mchp/espi.o
 .text.espi_vw_evt_sus_pwrdn_ack
                0x00000000000e7a10        0x2 build/hx20/RO/chip/mchp/espi.o
                0x00000000000e7a10                espi_vw_evt_sus_pwrdn_ack
 *fill*         0x00000000000e7a12        0x2 
 .text.espi_vw_evt1_dflt
                0x00000000000e7a14       0x10 build/hx20/RO/chip/mchp/espi.o
                0x00000000000e7a14                espi_vw_evt1_dflt
 .text.espi_vw_evt2_dflt
                0x00000000000e7a24       0x10 build/hx20/RO/chip/mchp/espi.o
                0x00000000000e7a24                espi_vw_evt2_dflt
 .text.espi_host_init
                0x00000000000e7a34       0x78 build/hx20/RO/chip/mchp/espi.o
 .text.espi_vw_evt_slp_s3_n
                0x00000000000e7aac        0x8 build/hx20/RO/chip/mchp/espi.o
                0x00000000000e7aac                espi_vw_evt_slp_s3_n
 .text.espi_vw_evt_slp_s4_n
                0x00000000000e7ab4        0x8 build/hx20/RO/chip/mchp/espi.o
                0x00000000000e7ab4                espi_vw_evt_slp_s4_n
 .text.espi_vw_evt_slp_s5_n
                0x00000000000e7abc        0x8 build/hx20/RO/chip/mchp/espi.o
                0x00000000000e7abc                espi_vw_evt_slp_s5_n
 .text.espi_vw_evt_sus_stat_n
                0x00000000000e7ac4        0x8 build/hx20/RO/chip/mchp/espi.o
                0x00000000000e7ac4                espi_vw_evt_sus_stat_n
 .text.espi_vw_s2m_set_w4m
                0x00000000000e7acc       0x3c build/hx20/RO/chip/mchp/espi.o
 .text.espi_chipset_reset
                0x00000000000e7b08        0x6 build/hx20/RO/chip/mchp/espi.o
 *fill*         0x00000000000e7b0e        0x2 
 .text.espi_vw_evt_pltrst_n
                0x00000000000e7b10       0x14 build/hx20/RO/chip/mchp/espi.o
                0x00000000000e7b10                espi_vw_evt_pltrst_n
 .text.espi_vw_evt_slp_wlan_n
                0x00000000000e7b24        0x2 build/hx20/RO/chip/mchp/espi.o
                0x00000000000e7b24                espi_vw_evt_slp_wlan_n
 .text.espi_vw_evt_host_c10
                0x00000000000e7b26        0x2 build/hx20/RO/chip/mchp/espi.o
                0x00000000000e7b26                espi_vw_evt_host_c10
 .text.espi_vw_evt_slp_a_n
                0x00000000000e7b28        0x2 build/hx20/RO/chip/mchp/espi.o
                0x00000000000e7b28                espi_vw_evt_slp_a_n
 .text.espi_vw_evt_slp_lan_n
                0x00000000000e7b2a        0x2 build/hx20/RO/chip/mchp/espi.o
                0x00000000000e7b2a                espi_vw_evt_slp_lan_n
 .text.espi_oob_init
                0x00000000000e7b2c       0x50 build/hx20/RO/chip/mchp/espi.o
                0x00000000000e7b2c                espi_oob_init
 .text.espi_vw_set_wire
                0x00000000000e7b7c       0x5c build/hx20/RO/chip/mchp/espi.o
                0x00000000000e7b7c                espi_vw_set_wire
 .text.espi_vw_evt_oob_rst_warn
                0x00000000000e7bd8        0xa build/hx20/RO/chip/mchp/espi.o
                0x00000000000e7bd8                espi_vw_evt_oob_rst_warn
 *fill*         0x00000000000e7be2        0x2 
 .text.espi_vw_evt_sus_warn_n
                0x00000000000e7be4       0x84 build/hx20/RO/chip/mchp/espi.o
                0x00000000000e7be4                espi_vw_evt_sus_warn_n
 .text.espi_vw_evt_host_rst_warn
                0x00000000000e7c68        0xa build/hx20/RO/chip/mchp/espi.o
                0x00000000000e7c68                espi_vw_evt_host_rst_warn
 *fill*         0x00000000000e7c72        0x2 
 .text.espi_vw_pulse_wire
                0x00000000000e7c74       0x54 build/hx20/RO/chip/mchp/espi.o
                0x00000000000e7c74                espi_vw_pulse_wire
 .text.espi_vw_get_wire
                0x00000000000e7cc8       0x38 build/hx20/RO/chip/mchp/espi.o
                0x00000000000e7cc8                espi_vw_get_wire
 .text.espi_vw_enable_wire_int
                0x00000000000e7d00       0x6c build/hx20/RO/chip/mchp/espi.o
                0x00000000000e7d00                espi_vw_enable_wire_int
 .text.espi_vw_disable_wire_int
                0x00000000000e7d6c       0x70 build/hx20/RO/chip/mchp/espi.o
                0x00000000000e7d6c                espi_vw_disable_wire_int
 .text.espi_mswv1_interrupt
                0x00000000000e7ddc       0x5c build/hx20/RO/chip/mchp/espi.o
                0x00000000000e7ddc                espi_mswv1_interrupt
 .text.irq_15_handler
                0x00000000000e7e38       0x14 build/hx20/RO/chip/mchp/espi.o
                0x00000000000e7e38                irq_15_handler
 .text.espi_msvw2_interrupt
                0x00000000000e7e4c       0x5c build/hx20/RO/chip/mchp/espi.o
                0x00000000000e7e4c                espi_msvw2_interrupt
 .text.irq_16_handler
                0x00000000000e7ea8       0x14 build/hx20/RO/chip/mchp/espi.o
                0x00000000000e7ea8                irq_16_handler
 .text.espi_reset_isr
                0x00000000000e7ebc       0x58 build/hx20/RO/chip/mchp/espi.o
                0x00000000000e7ebc                espi_reset_isr
 .text.irq_110_handler
                0x00000000000e7f14       0x14 build/hx20/RO/chip/mchp/espi.o
                0x00000000000e7f14                irq_110_handler
 .text.espi_vw_en_isr
                0x00000000000e7f28       0x4c build/hx20/RO/chip/mchp/espi.o
                0x00000000000e7f28                espi_vw_en_isr
 .text.irq_156_handler
                0x00000000000e7f74       0x14 build/hx20/RO/chip/mchp/espi.o
                0x00000000000e7f74                irq_156_handler
 .text.espi_oob_tx_isr
                0x00000000000e7f88       0x58 build/hx20/RO/chip/mchp/espi.o
                0x00000000000e7f88                espi_oob_tx_isr
 .text.irq_107_handler
                0x00000000000e7fe0       0x14 build/hx20/RO/chip/mchp/espi.o
                0x00000000000e7fe0                irq_107_handler
 .text.espi_oob_rx_isr
                0x00000000000e7ff4       0x1c build/hx20/RO/chip/mchp/espi.o
                0x00000000000e7ff4                espi_oob_rx_isr
 .text.irq_108_handler
                0x00000000000e8010       0x14 build/hx20/RO/chip/mchp/espi.o
                0x00000000000e8010                irq_108_handler
 .text.espi_fc_isr
                0x00000000000e8024       0x68 build/hx20/RO/chip/mchp/espi.o
                0x00000000000e8024                espi_fc_isr
 .text.irq_109_handler
                0x00000000000e808c       0x14 build/hx20/RO/chip/mchp/espi.o
                0x00000000000e808c                irq_109_handler
 .text.espi_pc_isr
                0x00000000000e80a0       0x54 build/hx20/RO/chip/mchp/espi.o
                0x00000000000e80a0                espi_pc_isr
 .text.irq_103_handler
                0x00000000000e80f4       0x14 build/hx20/RO/chip/mchp/espi.o
                0x00000000000e80f4                irq_103_handler
 .text.espi_init
                0x00000000000e8108      0x1ec build/hx20/RO/chip/mchp/espi.o
                0x00000000000e8108                espi_init
 .text.flash_preserve_state
                0x00000000000e82f4       0x20 build/hx20/RO/chip/mchp/flash.o
 .text.flash_physical_read
                0x00000000000e8314        0xc build/hx20/RO/chip/mchp/flash.o
                0x00000000000e8314                flash_physical_read
 .text.flash_physical_write
                0x00000000000e8320       0x54 build/hx20/RO/chip/mchp/flash.o
                0x00000000000e8320                flash_physical_write
 .text.flash_physical_erase
                0x00000000000e8374       0x14 build/hx20/RO/chip/mchp/flash.o
                0x00000000000e8374                flash_physical_erase
 .text.flash_physical_get_protect
                0x00000000000e8388        0xa build/hx20/RO/chip/mchp/flash.o
                0x00000000000e8388                flash_physical_get_protect
 *fill*         0x00000000000e8392        0x2 
 .text.flash_physical_protect_now
                0x00000000000e8394       0x10 build/hx20/RO/chip/mchp/flash.o
                0x00000000000e8394                flash_physical_protect_now
 .text.flash_physical_get_protect_flags
                0x00000000000e83a4       0x24 build/hx20/RO/chip/mchp/flash.o
                0x00000000000e83a4                flash_physical_get_protect_flags
 .text.flash_physical_get_valid_flags
                0x00000000000e83c8        0x4 build/hx20/RO/chip/mchp/flash.o
                0x00000000000e83c8                flash_physical_get_valid_flags
 .text.flash_physical_get_writable_flags
                0x00000000000e83cc       0x30 build/hx20/RO/chip/mchp/flash.o
                0x00000000000e83cc                flash_physical_get_writable_flags
 .text.flash_physical_protect_at_boot
                0x00000000000e83fc       0x38 build/hx20/RO/chip/mchp/flash.o
                0x00000000000e83fc                flash_physical_protect_at_boot
 .text.flash_physical_restore_state
                0x00000000000e8434       0x38 build/hx20/RO/chip/mchp/flash.o
                0x00000000000e8434                flash_physical_restore_state
 .text.flash_pre_init
                0x00000000000e846c        0xa build/hx20/RO/chip/mchp/flash.o
                0x00000000000e846c                flash_pre_init
 *fill*         0x00000000000e8476        0x2 
 .text.gpio_interrupt
                0x00000000000e8478       0x70 build/hx20/RO/chip/mchp/gpio.o
 .text.gpio_init
                0x00000000000e84e8       0x68 build/hx20/RO/chip/mchp/gpio.o
 .text.gpio_set_alternate_function
                0x00000000000e8550       0x3c build/hx20/RO/chip/mchp/gpio.o
                0x00000000000e8550                gpio_set_alternate_function
 .text.gpio_get_level
                0x00000000000e858c       0x30 build/hx20/RO/chip/mchp/gpio.o
                0x00000000000e858c                gpio_get_level
 .text.gpio_set_level
                0x00000000000e85bc       0x38 build/hx20/RO/chip/mchp/gpio.o
                0x00000000000e85bc                gpio_set_level
 .text.gpio_set_flags_by_mask
                0x00000000000e85f4       0xf2 build/hx20/RO/chip/mchp/gpio.o
                0x00000000000e85f4                gpio_set_flags_by_mask
 *fill*         0x00000000000e86e6        0x2 
 .text.gpio_enable_interrupt
                0x00000000000e86e8       0x4c build/hx20/RO/chip/mchp/gpio.o
                0x00000000000e86e8                gpio_enable_interrupt
 .text.gpio_disable_interrupt
                0x00000000000e8734       0x38 build/hx20/RO/chip/mchp/gpio.o
                0x00000000000e8734                gpio_disable_interrupt
 .text.gpio_pre_init
                0x00000000000e876c       0x3c build/hx20/RO/chip/mchp/gpio.o
                0x00000000000e876c                gpio_pre_init
 .text.__girq_8_interrupt
                0x00000000000e87a8        0x8 build/hx20/RO/chip/mchp/gpio.o
                0x00000000000e87a8                __girq_8_interrupt
 .text.__girq_9_interrupt
                0x00000000000e87b0        0x8 build/hx20/RO/chip/mchp/gpio.o
                0x00000000000e87b0                __girq_9_interrupt
 .text.__girq_10_interrupt
                0x00000000000e87b8        0x8 build/hx20/RO/chip/mchp/gpio.o
                0x00000000000e87b8                __girq_10_interrupt
 .text.__girq_11_interrupt
                0x00000000000e87c0        0x8 build/hx20/RO/chip/mchp/gpio.o
                0x00000000000e87c0                __girq_11_interrupt
 .text.__girq_12_interrupt
                0x00000000000e87c8        0x8 build/hx20/RO/chip/mchp/gpio.o
                0x00000000000e87c8                __girq_12_interrupt
 .text.__girq_26_interrupt
                0x00000000000e87d0        0x8 build/hx20/RO/chip/mchp/gpio.o
                0x00000000000e87d0                __girq_26_interrupt
 .text.irq_0_handler
                0x00000000000e87d8       0x14 build/hx20/RO/chip/mchp/gpio.o
                0x00000000000e87d8                irq_0_handler
 .text.irq_1_handler
                0x00000000000e87ec       0x14 build/hx20/RO/chip/mchp/gpio.o
                0x00000000000e87ec                irq_1_handler
 .text.irq_2_handler
                0x00000000000e8800       0x14 build/hx20/RO/chip/mchp/gpio.o
                0x00000000000e8800                irq_2_handler
 .text.irq_3_handler
                0x00000000000e8814       0x14 build/hx20/RO/chip/mchp/gpio.o
                0x00000000000e8814                irq_3_handler
 .text.irq_4_handler
                0x00000000000e8828       0x14 build/hx20/RO/chip/mchp/gpio.o
                0x00000000000e8828                irq_4_handler
 .text.irq_17_handler
                0x00000000000e883c       0x14 build/hx20/RO/chip/mchp/gpio.o
                0x00000000000e883c                irq_17_handler
 .text.configure_timer
                0x00000000000e8850       0x32 build/hx20/RO/chip/mchp/hwtimer.o
 .text.__hw_clock_event_set
                0x00000000000e8882       0x1e build/hx20/RO/chip/mchp/hwtimer.o
                0x00000000000e8882                __hw_clock_event_set
 .text.__hw_clock_event_get
                0x00000000000e88a0       0x12 build/hx20/RO/chip/mchp/hwtimer.o
                0x00000000000e88a0                __hw_clock_event_get
 .text.__hw_clock_event_clear
                0x00000000000e88b2       0x12 build/hx20/RO/chip/mchp/hwtimer.o
                0x00000000000e88b2                __hw_clock_event_clear
 .text.__hw_clock_source_read
                0x00000000000e88c4        0xc build/hx20/RO/chip/mchp/hwtimer.o
                0x00000000000e88c4                __hw_clock_source_read
 .text.__hw_clock_source_irq_0
                0x00000000000e88d0       0x24 build/hx20/RO/chip/mchp/hwtimer.o
                0x00000000000e88d0                __hw_clock_source_irq_0
 .text.irq_140_handler
                0x00000000000e88f4       0x14 build/hx20/RO/chip/mchp/hwtimer.o
                0x00000000000e88f4                irq_140_handler
 .text.__hw_clock_source_irq_1
                0x00000000000e8908       0x24 build/hx20/RO/chip/mchp/hwtimer.o
                0x00000000000e8908                __hw_clock_source_irq_1
 .text.irq_141_handler
                0x00000000000e892c       0x14 build/hx20/RO/chip/mchp/hwtimer.o
                0x00000000000e892c                irq_141_handler
 .text.__hw_clock_source_init
                0x00000000000e8940       0x60 build/hx20/RO/chip/mchp/hwtimer.o
                0x00000000000e8940                __hw_clock_source_init
 .text.disable_controller_irq
                0x00000000000e89a0       0x30 build/hx20/RO/chip/mchp/i2c.o
 .text.handle_interrupt
                0x00000000000e89d0      0x188 build/hx20/RO/chip/mchp/i2c.o
 .text.get_supported_speed_idx
                0x00000000000e8b58       0x78 build/hx20/RO/chip/mchp/i2c.o
 .text.configure_controller
                0x00000000000e8bd0      0x120 build/hx20/RO/chip/mchp/i2c.o
 .text.select_port
                0x00000000000e8cf0       0x50 build/hx20/RO/chip/mchp/i2c.o
 .text.reset_controller
                0x00000000000e8d40       0x7c build/hx20/RO/chip/mchp/i2c.o
 .text.wait_for_interrupt
                0x00000000000e8dbc       0x60 build/hx20/RO/chip/mchp/i2c.o
 .text.wait_byte_done.constprop.0
                0x00000000000e8e1c       0x80 build/hx20/RO/chip/mchp/i2c.o
 .text.wait_idle.isra.0
                0x00000000000e8e9c       0x74 build/hx20/RO/chip/mchp/i2c.o
 .text.i2c_raw_get_scl
                0x00000000000e8f10       0x1e build/hx20/RO/chip/mchp/i2c.o
                0x00000000000e8f10                i2c_raw_get_scl
 .text.i2c_raw_get_sda
                0x00000000000e8f2e       0x1e build/hx20/RO/chip/mchp/i2c.o
                0x00000000000e8f2e                i2c_raw_get_sda
 .text.get_line_level
                0x00000000000e8f4c       0x1e build/hx20/RO/chip/mchp/i2c.o
 *fill*         0x00000000000e8f6a        0x2 
 .text.chip_i2c_xfer
                0x00000000000e8f6c      0x434 build/hx20/RO/chip/mchp/i2c.o
                0x00000000000e8f6c                chip_i2c_xfer
 .text.i2c_get_line_levels
                0x00000000000e93a0       0x20 build/hx20/RO/chip/mchp/i2c.o
                0x00000000000e93a0                i2c_get_line_levels
 .text.i2c_port_to_controller
                0x00000000000e93c0        0x4 build/hx20/RO/chip/mchp/i2c.o
                0x00000000000e93c0                i2c_port_to_controller
 .text.i2c_set_timeout
                0x00000000000e93c4       0x24 build/hx20/RO/chip/mchp/i2c.o
                0x00000000000e93c4                i2c_set_timeout
 .text.i2c_init
                0x00000000000e93e8      0x10c build/hx20/RO/chip/mchp/i2c.o
                0x00000000000e93e8                i2c_init
 .text.i2c0_interrupt
                0x00000000000e94f4        0x6 build/hx20/RO/chip/mchp/i2c.o
                0x00000000000e94f4                i2c0_interrupt
 .text.i2c1_interrupt
                0x00000000000e94fa        0x6 build/hx20/RO/chip/mchp/i2c.o
                0x00000000000e94fa                i2c1_interrupt
 .text.i2c2_interrupt
                0x00000000000e9500        0x6 build/hx20/RO/chip/mchp/i2c.o
                0x00000000000e9500                i2c2_interrupt
 .text.i2c3_interrupt
                0x00000000000e9506        0x6 build/hx20/RO/chip/mchp/i2c.o
                0x00000000000e9506                i2c3_interrupt
 .text.irq_20_handler
                0x00000000000e950c       0x14 build/hx20/RO/chip/mchp/i2c.o
                0x00000000000e950c                irq_20_handler
 .text.irq_21_handler
                0x00000000000e9520       0x14 build/hx20/RO/chip/mchp/i2c.o
                0x00000000000e9520                irq_21_handler
 .text.irq_22_handler
                0x00000000000e9534       0x14 build/hx20/RO/chip/mchp/i2c.o
                0x00000000000e9534                irq_22_handler
 .text.irq_23_handler
                0x00000000000e9548       0x14 build/hx20/RO/chip/mchp/i2c.o
                0x00000000000e9548                irq_23_handler
 .text.i2c4_interrupt
                0x00000000000e955c        0x6 build/hx20/RO/chip/mchp/i2c.o
                0x00000000000e955c                i2c4_interrupt
 .text.irq_158_handler
                0x00000000000e9562       0x14 build/hx20/RO/chip/mchp/i2c.o
                0x00000000000e9562                irq_158_handler
 *fill*         0x00000000000e9576        0x2 
 .text.keyboard_raw_init
                0x00000000000e9578       0x3c build/hx20/RO/chip/mchp/keyboard_raw.o
                0x00000000000e9578                keyboard_raw_init
 .text.keyboard_raw_task_start
                0x00000000000e95b4        0x6 build/hx20/RO/chip/mchp/keyboard_raw.o
                0x00000000000e95b4                keyboard_raw_task_start
 *fill*         0x00000000000e95ba        0x2 
 .text.keyboard_raw_drive_column
                0x00000000000e95bc       0x20 build/hx20/RO/chip/mchp/keyboard_raw.o
                0x00000000000e95bc                keyboard_raw_drive_column
 .text.keyboard_raw_read_rows
                0x00000000000e95dc       0x10 build/hx20/RO/chip/mchp/keyboard_raw.o
                0x00000000000e95dc                keyboard_raw_read_rows
 .text.keyboard_raw_enable_interrupt
                0x00000000000e95ec       0x2c build/hx20/RO/chip/mchp/keyboard_raw.o
                0x00000000000e95ec                keyboard_raw_enable_interrupt
 .text.keyboard_raw_interrupt
                0x00000000000e9618       0x24 build/hx20/RO/chip/mchp/keyboard_raw.o
                0x00000000000e9618                keyboard_raw_interrupt
 .text.irq_135_handler
                0x00000000000e963c       0x14 build/hx20/RO/chip/mchp/keyboard_raw.o
                0x00000000000e963c                irq_135_handler
 .text.lpc_send_response
                0x00000000000e9650       0x6c build/hx20/RO/chip/mchp/lpc.o
 .text.lpc_send_response_packet
                0x00000000000e96bc       0x28 build/hx20/RO/chip/mchp/lpc.o
 .text.handle_keyboard_ibf_deferred
                0x00000000000e96e4       0x10 build/hx20/RO/chip/mchp/lpc.o
 .text.lpc_get_protocol_info
                0x00000000000e96f4       0x34 build/hx20/RO/chip/mchp/lpc.o
 .text.lpc_init
                0x00000000000e9728       0x44 build/hx20/RO/chip/mchp/lpc.o
 .text.lpc_command_init
                0x00000000000e976c        0xa build/hx20/RO/chip/mchp/lpc.o
 .text.lpc_chipset_reset
                0x00000000000e9776        0x6 build/hx20/RO/chip/mchp/lpc.o
 .text.lpc_get_customer_memmap_range
                0x00000000000e977c        0x8 build/hx20/RO/chip/mchp/lpc.o
                0x00000000000e977c                lpc_get_customer_memmap_range
 .text.lpc_update_host_event_status
                0x00000000000e9784       0xac build/hx20/RO/chip/mchp/lpc.o
                0x00000000000e9784                lpc_update_host_event_status
 .text.lpc_get_memmap_range
                0x00000000000e9830        0x8 build/hx20/RO/chip/mchp/lpc.o
                0x00000000000e9830                lpc_get_memmap_range
 .text.lpc_mem_mapped_init
                0x00000000000e9838       0x10 build/hx20/RO/chip/mchp/lpc.o
                0x00000000000e9838                lpc_mem_mapped_init
 .text.chip_acpi_ec_config
                0x00000000000e9848       0x78 build/hx20/RO/chip/mchp/lpc.o
                0x00000000000e9848                chip_acpi_ec_config
 .text.chip_8042_config
                0x00000000000e98c0       0x80 build/hx20/RO/chip/mchp/lpc.o
                0x00000000000e98c0                chip_8042_config
 .text.chip_emi0_config
                0x00000000000e9940       0x54 build/hx20/RO/chip/mchp/lpc.o
                0x00000000000e9940                chip_emi0_config
 .text.chip_port80_config
                0x00000000000e9994       0x54 build/hx20/RO/chip/mchp/lpc.o
                0x00000000000e9994                chip_port80_config
 .text.lpc_set_init_done
                0x00000000000e99e8        0xc build/hx20/RO/chip/mchp/lpc.o
                0x00000000000e99e8                lpc_set_init_done
 .text.emi0_interrupt
                0x00000000000e99f4        0xc build/hx20/RO/chip/mchp/lpc.o
                0x00000000000e99f4                emi0_interrupt
 .text.irq_42_handler
                0x00000000000e9a00       0x14 build/hx20/RO/chip/mchp/lpc.o
                0x00000000000e9a00                irq_42_handler
 .text.acpi_0_interrupt
                0x00000000000e9a14       0x58 build/hx20/RO/chip/mchp/lpc.o
                0x00000000000e9a14                acpi_0_interrupt
 .text.irq_45_handler
                0x00000000000e9a6c       0x14 build/hx20/RO/chip/mchp/lpc.o
                0x00000000000e9a6c                irq_45_handler
 .text.acpi_1_interrupt
                0x00000000000e9a80       0x78 build/hx20/RO/chip/mchp/lpc.o
                0x00000000000e9a80                acpi_1_interrupt
 .text.irq_47_handler
                0x00000000000e9af8       0x14 build/hx20/RO/chip/mchp/lpc.o
                0x00000000000e9af8                irq_47_handler
 .text.irq_59_handler
                0x00000000000e9b0c       0x14 build/hx20/RO/chip/mchp/lpc.o
                0x00000000000e9b0c                irq_59_handler
 .text.kb_obe_interrupt
                0x00000000000e9b20       0x1c build/hx20/RO/chip/mchp/lpc.o
                0x00000000000e9b20                kb_obe_interrupt
 .text.irq_58_handler
                0x00000000000e9b3c       0x14 build/hx20/RO/chip/mchp/lpc.o
                0x00000000000e9b3c                irq_58_handler
 .text.lpc_keyboard_has_char
                0x00000000000e9b50       0x10 build/hx20/RO/chip/mchp/lpc.o
                0x00000000000e9b50                lpc_keyboard_has_char
 .text.lpc_aux_has_char
                0x00000000000e9b60        0xc build/hx20/RO/chip/mchp/lpc.o
                0x00000000000e9b60                lpc_aux_has_char
 .text.lpc_keyboard_input_pending
                0x00000000000e9b6c       0x10 build/hx20/RO/chip/mchp/lpc.o
                0x00000000000e9b6c                lpc_keyboard_input_pending
 .text.kb_ibf_interrupt
                0x00000000000e9b7c       0x4c build/hx20/RO/chip/mchp/lpc.o
                0x00000000000e9b7c                kb_ibf_interrupt
 .text.lpc_keyboard_put_char
                0x00000000000e9bc8        0xc build/hx20/RO/chip/mchp/lpc.o
                0x00000000000e9bc8                lpc_keyboard_put_char
 .text.lpc_aux_put_char
                0x00000000000e9bd4        0xc build/hx20/RO/chip/mchp/lpc.o
                0x00000000000e9bd4                lpc_aux_put_char
 .text.lpc_keyboard_clear_buffer
                0x00000000000e9be0       0x14 build/hx20/RO/chip/mchp/lpc.o
                0x00000000000e9be0                lpc_keyboard_clear_buffer
 .text.lpc_keyboard_resume_irq
                0x00000000000e9bf4        0xc build/hx20/RO/chip/mchp/lpc.o
                0x00000000000e9bf4                lpc_keyboard_resume_irq
 .text.lpc_set_acpi_status_mask
                0x00000000000e9c00       0x10 build/hx20/RO/chip/mchp/lpc.o
                0x00000000000e9c00                lpc_set_acpi_status_mask
 .text.lpc_clear_acpi_status_mask
                0x00000000000e9c10       0x10 build/hx20/RO/chip/mchp/lpc.o
                0x00000000000e9c10                lpc_clear_acpi_status_mask
 .text.peci_init
                0x00000000000e9c20        0x8 build/hx20/RO/chip/mchp/peci.o
 .text.wait_for_idle
                0x00000000000e9c28       0x24 build/hx20/RO/chip/mchp/peci.o
                0x00000000000e9c28                wait_for_idle
 .text.reset_PECI
                0x00000000000e9c4c       0x34 build/hx20/RO/chip/mchp/peci.o
                0x00000000000e9c4c                reset_PECI
 .text.write_command
                0x00000000000e9c80       0x4c build/hx20/RO/chip/mchp/peci.o
                0x00000000000e9c80                write_command
 .text.read_databytes
                0x00000000000e9ccc       0x28 build/hx20/RO/chip/mchp/peci.o
                0x00000000000e9ccc                read_databytes
 .text.cleanup  0x00000000000e9cf4       0x28 build/hx20/RO/chip/mchp/peci.o
                0x00000000000e9cf4                cleanup
 .text.calc_AWFCS
                0x00000000000e9d1c       0x34 build/hx20/RO/chip/mchp/peci.o
                0x00000000000e9d1c                calc_AWFCS
 .text.peci_transaction
                0x00000000000e9d50      0x198 build/hx20/RO/chip/mchp/peci.o
                0x00000000000e9d50                peci_transaction
 .text.port_80_interrupt
                0x00000000000e9ee8       0x30 build/hx20/RO/chip/mchp/port80.o
                0x00000000000e9ee8                port_80_interrupt
 .text.irq_62_handler
                0x00000000000e9f18       0x14 build/hx20/RO/chip/mchp/port80.o
                0x00000000000e9f18                irq_62_handler
 .text.bbled_set_limit
                0x00000000000e9f2c       0x14 build/hx20/RO/chip/mchp/pwm.o
                0x00000000000e9f2c                bbled_set_limit
 .text.bbled_set_delay
                0x00000000000e9f40       0x14 build/hx20/RO/chip/mchp/pwm.o
                0x00000000000e9f40                bbled_set_delay
 .text.bbled_enable
                0x00000000000e9f54       0xa4 build/hx20/RO/chip/mchp/pwm.o
                0x00000000000e9f54                bbled_enable
 .text.pwm_enable
                0x00000000000e9ff8       0x78 build/hx20/RO/chip/mchp/pwm.o
                0x00000000000e9ff8                pwm_enable
 .text.pwm_get_enabled
                0x00000000000ea070       0x3c build/hx20/RO/chip/mchp/pwm.o
                0x00000000000ea070                pwm_get_enabled
 .text.pwm_set_duty
                0x00000000000ea0ac       0x50 build/hx20/RO/chip/mchp/pwm.o
                0x00000000000ea0ac                pwm_set_duty
 .text.pwm_get_duty
                0x00000000000ea0fc       0x44 build/hx20/RO/chip/mchp/pwm.o
                0x00000000000ea0fc                pwm_get_duty
 .text.pwm_configure
                0x00000000000ea140       0x50 build/hx20/RO/chip/mchp/pwm.o
                0x00000000000ea140                pwm_configure
 .text.pwm_slp_en
                0x00000000000ea190       0x38 build/hx20/RO/chip/mchp/pwm.o
                0x00000000000ea190                pwm_slp_en
 .text.pwm_init
                0x00000000000ea1c8       0x38 build/hx20/RO/chip/mchp/pwm.o
 .text.qmspi_descr_alloc
                0x00000000000ea200       0x58 build/hx20/RO/chip/mchp/qmspi.o
 .text.qmspi_cfg_irq_start
                0x00000000000ea258       0x34 build/hx20/RO/chip/mchp/qmspi.o
                0x00000000000ea258                qmspi_cfg_irq_start
 .text.qmspi_xfr
                0x00000000000ea28c      0x190 build/hx20/RO/chip/mchp/qmspi.o
                0x00000000000ea28c                qmspi_xfr
 .text.qmspi_transaction_async
                0x00000000000ea41c       0x2c build/hx20/RO/chip/mchp/qmspi.o
                0x00000000000ea41c                qmspi_transaction_async
 .text.qmspi_transaction_flush
                0x00000000000ea448       0x94 build/hx20/RO/chip/mchp/qmspi.o
                0x00000000000ea448                qmspi_transaction_flush
 .text.qmspi_enable
                0x00000000000ea4dc       0x5c build/hx20/RO/chip/mchp/qmspi.o
                0x00000000000ea4dc                qmspi_enable
 .text.spi_dma_option
                0x00000000000ea538       0x14 build/hx20/RO/chip/mchp/spi.o
                0x00000000000ea538                spi_dma_option
 .text.spi_transaction_async
                0x00000000000ea54c       0x14 build/hx20/RO/chip/mchp/spi.o
                0x00000000000ea54c                spi_transaction_async
 .text.spi_transaction_flush
                0x00000000000ea560        0xe build/hx20/RO/chip/mchp/spi.o
                0x00000000000ea560                spi_transaction_flush
 *fill*         0x00000000000ea56e        0x2 
 .text.spi_transaction
                0x00000000000ea570       0x44 build/hx20/RO/chip/mchp/spi.o
                0x00000000000ea570                spi_transaction
 .text.spi_enable
                0x00000000000ea5b4       0x24 build/hx20/RO/chip/mchp/spi.o
                0x00000000000ea5b4                spi_enable
 .text.system_is_reboot_warm
                0x00000000000ea5d8       0x64 build/hx20/RO/chip/mchp/system.o
                0x00000000000ea5d8                system_is_reboot_warm
 .text.chip_pre_init
                0x00000000000ea63c       0x3c build/hx20/RO/chip/mchp/system.o
                0x00000000000ea63c                chip_pre_init
 .text.system_pre_init
                0x00000000000ea678       0x58 build/hx20/RO/chip/mchp/system.o
                0x00000000000ea678                system_pre_init
 .text._system_reset
                0x00000000000ea6d0       0x88 build/hx20/RO/chip/mchp/system.o
                0x00000000000ea6d0                _system_reset
 .text.system_reset
                0x00000000000ea758        0x8 build/hx20/RO/chip/mchp/system.o
                0x00000000000ea758                system_reset
 .text.system_get_chip_vendor
                0x00000000000ea760        0x8 build/hx20/RO/chip/mchp/system.o
                0x00000000000ea760                system_get_chip_vendor
 .text.system_get_chip_name
                0x00000000000ea768       0x20 build/hx20/RO/chip/mchp/system.o
                0x00000000000ea768                system_get_chip_name
 .text.system_get_chip_revision
                0x00000000000ea788       0x38 build/hx20/RO/chip/mchp/system.o
                0x00000000000ea788                system_get_chip_revision
 .text.system_get_bbram
                0x00000000000ea7c0       0x40 build/hx20/RO/chip/mchp/system.o
                0x00000000000ea7c0                system_get_bbram
 .text.system_set_bbram
                0x00000000000ea800       0x3c build/hx20/RO/chip/mchp/system.o
                0x00000000000ea800                system_set_bbram
 .text.system_hibernate
                0x00000000000ea83c      0x1b0 build/hx20/RO/chip/mchp/system.o
                0x00000000000ea83c                system_hibernate
 .text.htimer_interrupt
                0x00000000000ea9ec        0x2 build/hx20/RO/chip/mchp/system.o
                0x00000000000ea9ec                htimer_interrupt
 .text.irq_112_handler
                0x00000000000ea9ee       0x14 build/hx20/RO/chip/mchp/system.o
                0x00000000000ea9ee                irq_112_handler
 *fill*         0x00000000000eaa02        0x2 
 .text.system_get_shrspi_image_copy
                0x00000000000eaa04       0x10 build/hx20/RO/chip/mchp/system.o
                0x00000000000eaa04                system_get_shrspi_image_copy
 .text.system_get_lfw_address
                0x00000000000eaa14        0x8 build/hx20/RO/chip/mchp/system.o
                0x00000000000eaa14                system_get_lfw_address
 .text.system_set_image_copy
                0x00000000000eaa1c       0x14 build/hx20/RO/chip/mchp/system.o
                0x00000000000eaa1c                system_set_image_copy
 .text.uart_init_done
                0x00000000000eaa30        0xc build/hx20/RO/chip/mchp/uart.o
                0x00000000000eaa30                uart_init_done
 .text.uart_tx_start
                0x00000000000eaa3c       0x3c build/hx20/RO/chip/mchp/uart.o
                0x00000000000eaa3c                uart_tx_start
 .text.uart_tx_stop
                0x00000000000eaa78       0x2c build/hx20/RO/chip/mchp/uart.o
                0x00000000000eaa78                uart_tx_stop
 .text.uart_tx_flush
                0x00000000000eaaa4       0x10 build/hx20/RO/chip/mchp/uart.o
                0x00000000000eaaa4                uart_tx_flush
 .text.uart_tx_ready
                0x00000000000eaab4       0x1c build/hx20/RO/chip/mchp/uart.o
                0x00000000000eaab4                uart_tx_ready
 .text.uart_rx_available
                0x00000000000eaad0       0x10 build/hx20/RO/chip/mchp/uart.o
                0x00000000000eaad0                uart_rx_available
 .text.uart_write_char
                0x00000000000eaae0       0x30 build/hx20/RO/chip/mchp/uart.o
                0x00000000000eaae0                uart_write_char
 .text.uart_read_char
                0x00000000000eab10        0xc build/hx20/RO/chip/mchp/uart.o
                0x00000000000eab10                uart_read_char
 .text.uart_ec_interrupt
                0x00000000000eab1c        0xe build/hx20/RO/chip/mchp/uart.o
                0x00000000000eab1c                uart_ec_interrupt
 .text.irq_40_handler
                0x00000000000eab2a       0x14 build/hx20/RO/chip/mchp/uart.o
                0x00000000000eab2a                irq_40_handler
 *fill*         0x00000000000eab3e        0x2 
 .text.uart_init
                0x00000000000eab40       0x98 build/hx20/RO/chip/mchp/uart.o
                0x00000000000eab40                uart_init
 .text.watchdog_reload
                0x00000000000eabd8       0x30 build/hx20/RO/chip/mchp/watchdog.o
                0x00000000000eabd8                watchdog_reload
 .text.watchdog_init
                0x00000000000eac08       0xa4 build/hx20/RO/chip/mchp/watchdog.o
                0x00000000000eac08                watchdog_init
 .text.watchdog_check
                0x00000000000eacac       0x20 build/hx20/RO/chip/mchp/watchdog.o
                0x00000000000eacac                watchdog_check
 .text.irq_136_handler
                0x00000000000eaccc       0x12 build/hx20/RO/chip/mchp/watchdog.o
                0x00000000000eaccc                irq_136_handler
 *fill*         0x00000000000eacde        0x2 
 .text.acpi_disable_burst_deferred
                0x00000000000eace0       0x24 build/hx20/RO/common/acpi.o
 .text.acpi_ap_to_ec
                0x00000000000ead04      0x204 build/hx20/RO/common/acpi.o
                0x00000000000ead04                acpi_ap_to_ec
 .text.hc_adc_read
                0x00000000000eaf08       0x38 build/hx20/RO/common/adc.o
 .text.print_one_adc
                0x00000000000eaf40       0x30 build/hx20/RO/common/adc.o
 .text.command_adc
                0x00000000000eaf70       0x4c build/hx20/RO/common/adc.o
 .text.print_item_name
                0x00000000000eafbc       0x10 build/hx20/RO/common/battery.o
 .text.check_print_error
                0x00000000000eafcc       0x2c build/hx20/RO/common/battery.o
 .text.battery_command_cutoff
                0x00000000000eaff8       0x68 build/hx20/RO/common/battery.o
 .text.command_cutoff
                0x00000000000eb060       0x40 build/hx20/RO/common/battery.o
 .text.pending_cutoff_deferred
                0x00000000000eb0a0       0x40 build/hx20/RO/common/battery.o
 .text.clear_pending_cutoff
                0x00000000000eb0e0       0x28 build/hx20/RO/common/battery.o
 .text.check_pending_cutoff
                0x00000000000eb108       0x30 build/hx20/RO/common/battery.o
 .text.battery_is_cut_off
                0x00000000000eb138       0x10 build/hx20/RO/common/battery.o
                0x00000000000eb138                battery_is_cut_off
 .text.battery_compensate_params
                0x00000000000eb148       0x58 build/hx20/RO/common/battery.o
                0x00000000000eb148                battery_compensate_params
 .text.print_battery_debug
                0x00000000000eb1a0      0x3a0 build/hx20/RO/common/battery.o
                0x00000000000eb1a0                print_battery_debug
 .text.command_battery
                0x00000000000eb540       0x7c build/hx20/RO/common/battery.o
 .text.battery_manufacturer_name
                0x00000000000eb5bc        0x8 build/hx20/RO/common/battery.o
                0x00000000000eb5bc                battery_manufacturer_name
 .text.hc_charge_port_count
                0x00000000000eb5c4        0xe build/hx20/RO/common/charge_manager.o
 .text.is_valid_port
                0x00000000000eb5d2       0x1a build/hx20/RO/common/charge_manager.o
 .text.charge_manager_is_seeded
                0x00000000000eb5ec       0x50 build/hx20/RO/common/charge_manager.o
 .text.is_pd_port
                0x00000000000eb63c       0x18 build/hx20/RO/common/charge_manager.o
 .text.charge_manager_init
                0x00000000000eb654       0x60 build/hx20/RO/common/charge_manager.o
 .text.charge_override_timeout
                0x00000000000eb6b4       0x14 build/hx20/RO/common/charge_manager.o
 .text.charger_detect_debounced
                0x00000000000eb6c8        0x6 build/hx20/RO/common/charge_manager.o
 *fill*         0x00000000000eb6ce        0x2 
 .text.charge_manager_get_best_charge_port
                0x00000000000eb6d0      0x148 build/hx20/RO/common/charge_manager.o
 .text.charge_supplier_info
                0x00000000000eb818       0x38 build/hx20/RO/common/charge_manager.o
 .text.find_supplier.constprop.0
                0x00000000000eb850       0x64 build/hx20/RO/common/charge_manager.o
 .text.charge_manager_leave_safe_mode
                0x00000000000eb8b4       0x44 build/hx20/RO/common/charge_manager.o
                0x00000000000eb8b4                charge_manager_leave_safe_mode
 .text.charge_manager_set_ceil
                0x00000000000eb8f8       0x48 build/hx20/RO/common/charge_manager.o
                0x00000000000eb8f8                charge_manager_set_ceil
 .text.charge_manager_get_charger_current
                0x00000000000eb940        0xc build/hx20/RO/common/charge_manager.o
                0x00000000000eb940                charge_manager_get_charger_current
 .text.charge_manager_get_power_limit_uw
                0x00000000000eb94c       0x24 build/hx20/RO/common/charge_manager.o
                0x00000000000eb94c                charge_manager_get_power_limit_uw
 .text.board_charge_port_is_sink
                0x00000000000eb970        0x4 build/hx20/RO/common/charge_manager.o
                0x00000000000eb970                board_charge_port_is_sink
 .text.is_sink  0x00000000000eb974       0x20 build/hx20/RO/common/charge_manager.o
 .text.charge_manager_refresh
                0x00000000000eb994      0x200 build/hx20/RO/common/charge_manager.o
 .text.charge_manager_set_override
                0x00000000000ebb94       0x9c build/hx20/RO/common/charge_manager.o
                0x00000000000ebb94                charge_manager_set_override
 .text.hc_charge_port_override
                0x00000000000ebc30       0x28 build/hx20/RO/common/charge_manager.o
 .text.command_charge_port_override
                0x00000000000ebc58       0x4c build/hx20/RO/common/charge_manager.o
 .text.charge_manager_make_change
                0x00000000000ebca4      0x174 build/hx20/RO/common/charge_manager.o
 .text.charge_manager_update_charge
                0x00000000000ebe18       0x1e build/hx20/RO/common/charge_manager.o
                0x00000000000ebe18                charge_manager_update_charge
 .text.pd_set_input_current_limit
                0x00000000000ebe36       0x16 build/hx20/RO/common/charge_manager.o
                0x00000000000ebe36                pd_set_input_current_limit
 .text.typec_set_input_current_limit
                0x00000000000ebe4c       0x48 build/hx20/RO/common/charge_manager.o
                0x00000000000ebe4c                typec_set_input_current_limit
 .text.charge_manager_update_dualrole
                0x00000000000ebe94       0x34 build/hx20/RO/common/charge_manager.o
                0x00000000000ebe94                charge_manager_update_dualrole
 .text.board_charge_port_is_connected
                0x00000000000ebec8        0x4 build/hx20/RO/common/charge_manager.o
                0x00000000000ebec8                board_charge_port_is_connected
 .text.board_fill_source_power_info
                0x00000000000ebecc       0x1c build/hx20/RO/common/charge_manager.o
                0x00000000000ebecc                board_fill_source_power_info
 .text.hc_pd_power_info
                0x00000000000ebee8      0x1ec build/hx20/RO/common/charge_manager.o
 .text.set_charge_state
                0x00000000000ec0d4       0x14 build/hx20/RO/common/charge_state_v2.o
 .text.reset_current_limit
                0x00000000000ec0e8       0x10 build/hx20/RO/common/charge_state_v2.o
 .text.charge_command_current_limit
                0x00000000000ec0f8       0x24 build/hx20/RO/common/charge_state_v2.o
 .text.charger_init
                0x00000000000ec11c       0x30 build/hx20/RO/common/charge_state_v2.o
                0x00000000000ec11c                charger_init
 .text.problem  0x00000000000ec14c       0x6c build/hx20/RO/common/charge_state_v2.o
 .text.dump_charge_state
                0x00000000000ec1b8      0x1f8 build/hx20/RO/common/charge_state_v2.o
 .text.get_desired_input_current
                0x00000000000ec3b0       0x2a build/hx20/RO/common/charge_state_v2.o
 *fill*         0x00000000000ec3da        0x2 
 .text.command_pwr_avg
                0x00000000000ec3dc       0x40 build/hx20/RO/common/charge_state_v2.o
 .text.charge_wakeup
                0x00000000000ec41c        0xc build/hx20/RO/common/charge_state_v2.o
 .text.chgstate_set_manual_current
                0x00000000000ec428       0x1c build/hx20/RO/common/charge_state_v2.o
                0x00000000000ec428                chgstate_set_manual_current
 .text.chgstate_set_manual_voltage
                0x00000000000ec444       0x10 build/hx20/RO/common/charge_state_v2.o
                0x00000000000ec444                chgstate_set_manual_voltage
 .text.charge_command_charge_state
                0x00000000000ec454      0x16c build/hx20/RO/common/charge_state_v2.o
 .text.set_chg_ctrl_mode
                0x00000000000ec5c0       0x28 build/hx20/RO/common/charge_state_v2.o
                0x00000000000ec5c0                set_chg_ctrl_mode
 .text.charge_command_charge_control
                0x00000000000ec5e8       0x38 build/hx20/RO/common/charge_state_v2.o
 .text.command_chgstate
                0x00000000000ec620       0xac build/hx20/RO/common/charge_state_v2.o
 .text.board_set_battery_level_shutdown
                0x00000000000ec6cc        0x4 build/hx20/RO/common/charge_state_v2.o
                0x00000000000ec6cc                board_set_battery_level_shutdown
 .text.board_critical_shutdown_check
                0x00000000000ec6d0        0x4 build/hx20/RO/common/charge_state_v2.o
                0x00000000000ec6d0                board_critical_shutdown_check
 .text.charger_current_battery_params
                0x00000000000ec6d4        0x8 build/hx20/RO/common/charge_state_v2.o
                0x00000000000ec6d4                charger_current_battery_params
 .text.charger_task
                0x00000000000ec6dc      0xa00 build/hx20/RO/common/charge_state_v2.o
                0x00000000000ec6dc                charger_task
 .text.charge_want_shutdown
                0x00000000000ed0dc       0x28 build/hx20/RO/common/charge_state_v2.o
                0x00000000000ed0dc                charge_want_shutdown
 .text.charge_prevent_power_on
                0x00000000000ed104       0x94 build/hx20/RO/common/charge_state_v2.o
                0x00000000000ed104                charge_prevent_power_on
 .text.charge_get_percent
                0x00000000000ed198       0x14 build/hx20/RO/common/charge_state_v2.o
                0x00000000000ed198                charge_get_percent
 .text.charge_get_state
                0x00000000000ed1ac       0x48 build/hx20/RO/common/charge_state_v2.o
                0x00000000000ed1ac                charge_get_state
 .text.charge_get_display_charge
                0x00000000000ed1f4        0xc build/hx20/RO/common/charge_state_v2.o
                0x00000000000ed1f4                charge_get_display_charge
 .text.charge_get_battery_temp
                0x00000000000ed200       0x20 build/hx20/RO/common/charge_state_v2.o
                0x00000000000ed200                charge_get_battery_temp
 .text.charge_set_input_current_limit
                0x00000000000ed220       0x30 build/hx20/RO/common/charge_state_v2.o
                0x00000000000ed220                charge_set_input_current_limit
 .text.dptf_disable_hook
                0x00000000000ed250       0x10 build/hx20/RO/common/charger.o
 .text.print_item_name
                0x00000000000ed260       0x10 build/hx20/RO/common/charger.o
 .text.check_print_error
                0x00000000000ed270       0x24 build/hx20/RO/common/charger.o
 .text.dptf_set_charging_current_limit
                0x00000000000ed294       0x10 build/hx20/RO/common/charger.o
                0x00000000000ed294                dptf_set_charging_current_limit
 .text.dptf_get_charging_current_limit
                0x00000000000ed2a4        0xc build/hx20/RO/common/charger.o
                0x00000000000ed2a4                dptf_get_charging_current_limit
 .text.board_get_charger_chip_count
                0x00000000000ed2b0        0x4 build/hx20/RO/common/charger.o
                0x00000000000ed2b0                board_get_charger_chip_count
 .text.charger_post_init
                0x00000000000ed2b4       0x38 build/hx20/RO/common/charger.o
                0x00000000000ed2b4                charger_post_init
 .text.charger_get_info
                0x00000000000ed2ec       0x38 build/hx20/RO/common/charger.o
                0x00000000000ed2ec                charger_get_info
 .text.charger_closest_voltage
                0x00000000000ed324       0x28 build/hx20/RO/common/charger.o
                0x00000000000ed324                charger_closest_voltage
 .text.charger_closest_current
                0x00000000000ed34c       0x3c build/hx20/RO/common/charger.o
                0x00000000000ed34c                charger_closest_current
 .text.charger_get_status
                0x00000000000ed388       0x3c build/hx20/RO/common/charger.o
                0x00000000000ed388                charger_get_status
 .text.charger_set_mode
                0x00000000000ed3c4       0x3c build/hx20/RO/common/charger.o
                0x00000000000ed3c4                charger_set_mode
 .text.charger_get_current
                0x00000000000ed400       0x48 build/hx20/RO/common/charger.o
                0x00000000000ed400                charger_get_current
 .text.charger_set_current
                0x00000000000ed448       0x48 build/hx20/RO/common/charger.o
                0x00000000000ed448                charger_set_current
 .text.charger_get_voltage
                0x00000000000ed490       0x48 build/hx20/RO/common/charger.o
                0x00000000000ed490                charger_get_voltage
 .text.charger_set_voltage
                0x00000000000ed4d8       0x48 build/hx20/RO/common/charger.o
                0x00000000000ed4d8                charger_set_voltage
 .text.charger_discharge_on_ac
                0x00000000000ed520       0x30 build/hx20/RO/common/charger.o
                0x00000000000ed520                charger_discharge_on_ac
 .text.charger_get_vbus_voltage
                0x00000000000ed550       0x40 build/hx20/RO/common/charger.o
                0x00000000000ed550                charger_get_vbus_voltage
 .text.charger_set_input_current
                0x00000000000ed590       0x48 build/hx20/RO/common/charger.o
                0x00000000000ed590                charger_set_input_current
 .text.charger_get_input_current
                0x00000000000ed5d8       0x48 build/hx20/RO/common/charger.o
                0x00000000000ed5d8                charger_get_input_current
 .text.charger_manufacturer_id
                0x00000000000ed620       0x3c build/hx20/RO/common/charger.o
                0x00000000000ed620                charger_manufacturer_id
 .text.charger_device_id
                0x00000000000ed65c       0x3c build/hx20/RO/common/charger.o
                0x00000000000ed65c                charger_device_id
 .text.charger_get_option
                0x00000000000ed698       0x3c build/hx20/RO/common/charger.o
                0x00000000000ed698                charger_get_option
 .text.charger_get_params
                0x00000000000ed6d4       0x6a build/hx20/RO/common/charger.o
                0x00000000000ed6d4                charger_get_params
 *fill*         0x00000000000ed73e        0x2 
 .text.print_charger_debug
                0x00000000000ed740      0x154 build/hx20/RO/common/charger.o
                0x00000000000ed740                print_charger_debug
 .text.command_charger
                0x00000000000ed894      0x10c build/hx20/RO/common/charger.o
 .text.charger_set_option
                0x00000000000ed9a0       0x3c build/hx20/RO/common/charger.o
                0x00000000000ed9a0                charger_set_option
 .text.command_apreset
                0x00000000000ed9dc       0x18 build/hx20/RO/common/chipset.o
 .text.command_apshutdown
                0x00000000000ed9f4        0xe build/hx20/RO/common/chipset.o
 *fill*         0x00000000000eda02        0x2 
 .text.move_cursor_begin
                0x00000000000eda04       0x20 build/hx20/RO/common/console.o
 .text.command_history
                0x00000000000eda24       0x44 build/hx20/RO/common/console.o
 .text.find_command
                0x00000000000eda68       0x48 build/hx20/RO/common/console.o
 .text.save_history
                0x00000000000edab0       0x1c build/hx20/RO/common/console.o
 .text.command_help
                0x00000000000edacc      0x134 build/hx20/RO/common/console.o
 .text.move_cursor_right
                0x00000000000edc00       0x28 build/hx20/RO/common/console.o
 .text.repeat_char
                0x00000000000edc28       0x14 build/hx20/RO/common/console.o
 .text.load_history
                0x00000000000edc3c       0x58 build/hx20/RO/common/console.o
 .text.console_has_input
                0x00000000000edc94        0xc build/hx20/RO/common/console.o
                0x00000000000edc94                console_has_input
 .text.console_task
                0x00000000000edca0      0x4ac build/hx20/RO/common/console.o
                0x00000000000edca0                console_task
 .text.cputs    0x00000000000ee14c       0x18 build/hx20/RO/common/console_output.o
                0x00000000000ee14c                cputs
 .text.cprintf  0x00000000000ee164       0x2c build/hx20/RO/common/console_output.o
                0x00000000000ee164                cprintf
 .text.command_ch
                0x00000000000ee190       0xac build/hx20/RO/common/console_output.o
 .text.cprints  0x00000000000ee23c       0x54 build/hx20/RO/common/console_output.o
                0x00000000000ee23c                cprints
 .text.cflush   0x00000000000ee290        0x4 build/hx20/RO/common/console_output.o
                0x00000000000ee290                cflush
 .text.dptf_init
                0x00000000000ee294       0x34 build/hx20/RO/common/dptf.o
 .text.command_dptftemp
                0x00000000000ee2c8       0xc4 build/hx20/RO/common/dptf.o
 .text.thermal_control_dptf
                0x00000000000ee38c      0x11c build/hx20/RO/common/dptf.o
 .text.dptf_query_next_sensor_event
                0x00000000000ee4a8       0x5c build/hx20/RO/common/dptf.o
                0x00000000000ee4a8                dptf_query_next_sensor_event
 .text.dptf_set_temp_threshold
                0x00000000000ee504       0xa8 build/hx20/RO/common/dptf.o
                0x00000000000ee504                dptf_set_temp_threshold
 .text.board_override_feature_flags0
                0x00000000000ee5ac        0x2 build/hx20/RO/common/ec_features.o
                0x00000000000ee5ac                board_override_feature_flags0
 *fill*         0x00000000000ee5ae        0x2 
 .text.get_feature_flags0
                0x00000000000ee5b0       0x10 build/hx20/RO/common/ec_features.o
                0x00000000000ee5b0                get_feature_flags0
 .text.board_override_feature_flags1
                0x00000000000ee5c0        0x2 build/hx20/RO/common/ec_features.o
                0x00000000000ee5c0                board_override_feature_flags1
 .text.get_feature_flags1
                0x00000000000ee5c2        0xa build/hx20/RO/common/ec_features.o
                0x00000000000ee5c2                get_feature_flags1
 .text.cc_feat  0x00000000000ee5cc       0x2c build/hx20/RO/common/ec_features.o
 .text.espi_signal_is_vw
                0x00000000000ee5f8        0xe build/hx20/RO/common/espi.o
                0x00000000000ee5f8                espi_signal_is_vw
 .text.extpower_handle_update
                0x00000000000ee606       0x2e build/hx20/RO/common/extpower_common.o
                0x00000000000ee606                extpower_handle_update
 .text.extpower_deferred
                0x00000000000ee634       0x20 build/hx20/RO/common/extpower_gpio.o
 .text.extpower_init
                0x00000000000ee654       0x34 build/hx20/RO/common/extpower_gpio.o
 .text.extpower_is_present
                0x00000000000ee688        0xc build/hx20/RO/common/extpower_gpio.o
                0x00000000000ee688                extpower_is_present
 .text.extpower_interrupt
                0x00000000000ee694       0x10 build/hx20/RO/common/extpower_gpio.o
                0x00000000000ee694                extpower_interrupt
 .text.hc_pwm_get_fan_target_rpm
                0x00000000000ee6a4       0x3c build/hx20/RO/common/fan.o
 .text.cc_faninfo
                0x00000000000ee6e0      0x184 build/hx20/RO/common/fan.o
 .text.set_enabled
                0x00000000000ee864       0x28 build/hx20/RO/common/fan.o
 .text.hc_pwm_set_fan_target_rpm
                0x00000000000ee88c       0xe4 build/hx20/RO/common/fan.o
 .text.set_duty_cycle
                0x00000000000ee970       0x40 build/hx20/RO/common/fan.o
 .text.cc_fanduty
                0x00000000000ee9b0       0x90 build/hx20/RO/common/fan.o
 .text.hc_pwm_set_fan_duty
                0x00000000000eea40       0x5c build/hx20/RO/common/fan.o
 .text.pwm_fan_second
                0x00000000000eea9c       0x70 build/hx20/RO/common/fan.o
 .text.pwm_fan_preserve_state
                0x00000000000eeb0c       0x60 build/hx20/RO/common/fan.o
 .text.set_thermal_control_enabled
                0x00000000000eeb6c       0x20 build/hx20/RO/common/fan.o
 .text.hc_thermal_auto_fan_ctrl
                0x00000000000eeb8c       0x38 build/hx20/RO/common/fan.o
 .text.cc_fanauto
                0x00000000000eebc4       0x4c build/hx20/RO/common/fan.o
 .text.pwm_fan_init
                0x00000000000eec10       0xa8 build/hx20/RO/common/fan.o
 .text.pwm_fan_control
                0x00000000000eecb8       0x58 build/hx20/RO/common/fan.o
 .text.pwm_fan_stop
                0x00000000000eed10       0x1e build/hx20/RO/common/fan.o
 .text.pwm_fan_start
                0x00000000000eed2e       0x16 build/hx20/RO/common/fan.o
 .text.fan_get_count
                0x00000000000eed44        0xc build/hx20/RO/common/fan.o
                0x00000000000eed44                fan_get_count
 .text.fan_percent_to_rpm
                0x00000000000eed50       0x2c build/hx20/RO/common/fan.o
                0x00000000000eed50                fan_percent_to_rpm
 .text.cc_fanset
                0x00000000000eed7c       0xe4 build/hx20/RO/common/fan.o
 .text.fan_set_percent_needed
                0x00000000000eee60       0x54 build/hx20/RO/common/fan.o
                0x00000000000eee60                fan_set_percent_needed
 .text.dptf_get_fan_duty_target
                0x00000000000eeeb4       0x38 build/hx20/RO/common/fan.o
                0x00000000000eeeb4                dptf_get_fan_duty_target
 .text.dptf_set_fan_duty_target
                0x00000000000eeeec       0x38 build/hx20/RO/common/fan.o
                0x00000000000eeeec                dptf_set_fan_duty_target
 .text.flash_range_ok
                0x00000000000eef24       0x26 build/hx20/RO/common/flash.o
 .text.flash_command_read
                0x00000000000eef4a       0x50 build/hx20/RO/common/flash.o
 .text.flash_command_get_info
                0x00000000000eef9a       0xe4 build/hx20/RO/common/flash.o
 .text.flash_command_region_info
                0x00000000000ef07e       0x6a build/hx20/RO/common/flash.o
 .text.flash_read
                0x00000000000ef0e8        0x4 build/hx20/RO/common/flash.o
                0x00000000000ef0e8                flash_read
 .text.flash_write
                0x00000000000ef0ec       0x1e build/hx20/RO/common/flash.o
                0x00000000000ef0ec                flash_write
 .text.flash_erase
                0x00000000000ef10a       0x1c build/hx20/RO/common/flash.o
                0x00000000000ef10a                flash_erase
 .text.flash_get_protect
                0x00000000000ef126       0x8a build/hx20/RO/common/flash.o
                0x00000000000ef126                flash_get_protect
 .text.command_flash_info
                0x00000000000ef1b0      0x138 build/hx20/RO/common/flash.o
 .text.flash_command_write
                0x00000000000ef2e8       0x5c build/hx20/RO/common/flash.o
 .text.flash_command_erase
                0x00000000000ef344       0x48 build/hx20/RO/common/flash.o
 .text.flash_set_protect
                0x00000000000ef38c       0x8a build/hx20/RO/common/flash.o
                0x00000000000ef38c                flash_set_protect
 *fill*         0x00000000000ef416        0x2 
 .text.command_flash_wp
                0x00000000000ef418       0x74 build/hx20/RO/common/flash.o
 .text.flash_command_protect
                0x00000000000ef48c       0x98 build/hx20/RO/common/flash.o
 .text.gpio_config_pins
                0x00000000000ef524       0x88 build/hx20/RO/common/gpio.o
 .text.gpio_config_module
                0x00000000000ef5ac        0xc build/hx20/RO/common/gpio.o
                0x00000000000ef5ac                gpio_config_module
 .text.gpio_config_pin
                0x00000000000ef5b8       0x18 build/hx20/RO/common/gpio.o
                0x00000000000ef5b8                gpio_config_pin
 .text.gpio_set_flags
                0x00000000000ef5d0       0x14 build/hx20/RO/common/gpio.o
                0x00000000000ef5d0                gpio_set_flags
 .text.gpio_get_default_flags
                0x00000000000ef5e4       0x10 build/hx20/RO/common/gpio.o
                0x00000000000ef5e4                gpio_get_default_flags
 .text.gpio_reset
                0x00000000000ef5f4       0x24 build/hx20/RO/common/gpio.o
                0x00000000000ef5f4                gpio_reset
 .text.gpio_get_name
                0x00000000000ef618        0xc build/hx20/RO/common/gpio.o
                0x00000000000ef618                gpio_get_name
 .text.gpio_is_implemented
                0x00000000000ef624       0x14 build/hx20/RO/common/gpio.o
                0x00000000000ef624                gpio_is_implemented
 .text.signal_is_gpio
                0x00000000000ef638        0xa build/hx20/RO/common/gpio.o
                0x00000000000ef638                signal_is_gpio
 .text.find_signal_by_name
                0x00000000000ef642       0x36 build/hx20/RO/common/gpio_commands.o
 .text.print_gpio_info
                0x00000000000ef678       0x7c build/hx20/RO/common/gpio_commands.o
 .text.command_gpio_get
                0x00000000000ef6f4       0x34 build/hx20/RO/common/gpio_commands.o
 .text.set      0x00000000000ef728       0x30 build/hx20/RO/common/gpio_commands.o
 .text.gpio_command_get
                0x00000000000ef758       0x8e build/hx20/RO/common/gpio_commands.o
 .text.gpio_command_set
                0x00000000000ef7e6       0x22 build/hx20/RO/common/gpio_commands.o
 .text.command_gpio_set
                0x00000000000ef808       0x34 build/hx20/RO/common/gpio_commands.o
 .text.hook_notify
                0x00000000000ef83c       0x5c build/hx20/RO/common/hooks.o
                0x00000000000ef83c                hook_notify
 .text.hook_call_deferred
                0x00000000000ef898       0x70 build/hx20/RO/common/hooks.o
                0x00000000000ef898                hook_call_deferred
 .text.hook_task
                0x00000000000ef908      0x148 build/hx20/RO/common/hooks.o
                0x00000000000ef908                hook_task
 .text.host_packet_respond
                0x00000000000efa50       0x78 build/hx20/RO/common/host_command.o
                0x00000000000efa50                host_packet_respond
 .text.host_command_proto_version
                0x00000000000efac8       0x16 build/hx20/RO/common/host_command.o
 .text.host_command_hello
                0x00000000000efade       0x3c build/hx20/RO/common/host_command.o
 .text.host_command_read_test
                0x00000000000efb1a       0x6a build/hx20/RO/common/host_command.o
 .text.host_command_test_protocol
                0x00000000000efb84       0x44 build/hx20/RO/common/host_command.o
 .text.host_command_get_features
                0x00000000000efbc8       0x40 build/hx20/RO/common/host_command.o
 .text.command_hcdebug
                0x00000000000efc08       0x48 build/hx20/RO/common/host_command.o
 .text.host_command_get_cmd_versions
                0x00000000000efc50       0x60 build/hx20/RO/common/host_command.o
 .text.host_get_memmap
                0x00000000000efcb0        0xc build/hx20/RO/common/host_command.o
                0x00000000000efcb0                host_get_memmap
 .text.host_get_customer_memmap
                0x00000000000efcbc        0xc build/hx20/RO/common/host_command.o
                0x00000000000efcbc                host_get_customer_memmap
 .text.host_send_response
                0x00000000000efcc8        0x4 build/hx20/RO/common/host_command.o
                0x00000000000efcc8                host_send_response
 .text.host_command_received
                0x00000000000efccc       0x30 build/hx20/RO/common/host_command.o
                0x00000000000efccc                host_command_received
 .text.host_packet_receive
                0x00000000000efcfc      0x11c build/hx20/RO/common/host_command.o
                0x00000000000efcfc                host_packet_receive
 .text.host_command_process
                0x00000000000efe18      0x128 build/hx20/RO/common/host_command.o
                0x00000000000efe18                host_command_process
 .text.host_command_task
                0x00000000000eff40       0xe0 build/hx20/RO/common/host_command.o
                0x00000000000eff40                host_command_task
 .text.clear_events_copy_b
                0x00000000000f0020       0x10 build/hx20/RO/common/host_event_commands.o
                0x00000000000f0020                clear_events_copy_b
 .text.host_event_get_smi_mask
                0x00000000000f0030       0x20 build/hx20/RO/common/host_event_commands.o
 .text.host_event_get_sci_mask
                0x00000000000f0050       0x20 build/hx20/RO/common/host_event_commands.o
 .text.host_event_get_wake_mask
                0x00000000000f0070       0x20 build/hx20/RO/common/host_event_commands.o
 .text.host_event_get_b
                0x00000000000f0090       0x20 build/hx20/RO/common/host_event_commands.o
 .text.host_event_set_smi_mask
                0x00000000000f00b0       0x2c build/hx20/RO/common/host_event_commands.o
 .text.host_event_set_sci_mask
                0x00000000000f00dc       0x2c build/hx20/RO/common/host_event_commands.o
 .text.lpc_sysjump_save_mask
                0x00000000000f0108       0x14 build/hx20/RO/common/host_event_commands.o
 .text.preserve_lazy_wm
                0x00000000000f011c       0x14 build/hx20/RO/common/host_event_commands.o
 .text.restore_lazy_wm
                0x00000000000f0130       0x34 build/hx20/RO/common/host_event_commands.o
 .text.host_event_set_bit
                0x00000000000f0164       0x22 build/hx20/RO/common/host_event_commands.o
 *fill*         0x00000000000f0186        0x2 
 .text.host_clear_events_b
                0x00000000000f0188       0x5c build/hx20/RO/common/host_event_commands.o
 .text.host_event_clear_b
                0x00000000000f01e4       0x24 build/hx20/RO/common/host_event_commands.o
 .text.lpc_set_host_event_mask
                0x00000000000f0208       0x2c build/hx20/RO/common/host_event_commands.o
                0x00000000000f0208                lpc_set_host_event_mask
 .text.host_event_set_wake_mask
                0x00000000000f0234       0x4c build/hx20/RO/common/host_event_commands.o
 .text.lpc_get_host_event_mask
                0x00000000000f0280       0x10 build/hx20/RO/common/host_event_commands.o
                0x00000000000f0280                lpc_get_host_event_mask
 .text.lpc_get_host_events_by_type
                0x00000000000f0290       0x18 build/hx20/RO/common/host_event_commands.o
                0x00000000000f0290                lpc_get_host_events_by_type
 .text.lpc_get_host_events
                0x00000000000f02a8        0xc build/hx20/RO/common/host_event_commands.o
                0x00000000000f02a8                lpc_get_host_events
 .text.lpc_override_always_report_mask
                0x00000000000f02b4        0xc build/hx20/RO/common/host_event_commands.o
                0x00000000000f02b4                lpc_override_always_report_mask
 .text.lpc_init_mask
                0x00000000000f02c0       0x44 build/hx20/RO/common/host_event_commands.o
                0x00000000000f02c0                lpc_init_mask
 .text.host_get_events
                0x00000000000f0304        0xc build/hx20/RO/common/host_event_commands.o
                0x00000000000f0304                host_get_events
 .text.host_set_events
                0x00000000000f0310       0xdc build/hx20/RO/common/host_event_commands.o
                0x00000000000f0310                host_set_events
 .text.host_set_single_event
                0x00000000000f03ec       0x18 build/hx20/RO/common/host_event_commands.o
                0x00000000000f03ec                host_set_single_event
 .text.host_clear_events
                0x00000000000f0404       0x7c build/hx20/RO/common/host_event_commands.o
                0x00000000000f0404                host_clear_events
 .text.lpc_get_next_host_event
                0x00000000000f0480       0x40 build/hx20/RO/common/host_event_commands.o
                0x00000000000f0480                lpc_get_next_host_event
 .text.clear_non_sci_events
                0x00000000000f04c0       0x1c build/hx20/RO/common/host_event_commands.o
                0x00000000000f04c0                clear_non_sci_events
 .text.command_host_event
                0x00000000000f04dc      0x164 build/hx20/RO/common/host_event_commands.o
 .text.host_event_clear
                0x00000000000f0640       0x24 build/hx20/RO/common/host_event_commands.o
 .text.host_command_host_event
                0x00000000000f0664      0x184 build/hx20/RO/common/host_event_commands.o
 .text.host_throttle_cpu
                0x00000000000f07e8        0xc build/hx20/RO/common/host_event_commands.o
                0x00000000000f07e8                host_throttle_cpu
 .text.lpc_is_active_wm_set_by_host
                0x00000000000f07f4        0xc build/hx20/RO/common/host_event_commands.o
                0x00000000000f07f4                lpc_is_active_wm_set_by_host
 .text.get_lazy_wake_mask
                0x00000000000f0800       0x38 build/hx20/RO/common/host_event_commands.o
                0x00000000000f0800                get_lazy_wake_mask
 .text.get_i2c_port
                0x00000000000f0838       0x34 build/hx20/RO/common/i2c_master.o
                0x00000000000f0838                get_i2c_port
 .text.i2c_command_passthru_protect
                0x00000000000f086c       0x4c build/hx20/RO/common/i2c_master.o
 .text.i2c_xfer_unlocked
                0x00000000000f08b8       0x78 build/hx20/RO/common/i2c_master.o
                0x00000000000f08b8                i2c_xfer_unlocked
 .text.i2c_lock
                0x00000000000f0930       0x90 build/hx20/RO/common/i2c_master.o
                0x00000000000f0930                i2c_lock
 .text.i2c_xfer
                0x00000000000f09c0       0x3a build/hx20/RO/common/i2c_master.o
                0x00000000000f09c0                i2c_xfer
 .text.i2c_write
                0x00000000000f09fa       0x18 build/hx20/RO/common/i2c_master.o
 *fill*         0x00000000000f0a12        0x2 
 .text.i2c_command_passthru
                0x00000000000f0a14      0x18c build/hx20/RO/common/i2c_master.o
 .text.scan_bus
                0x00000000000f0ba0       0x9c build/hx20/RO/common/i2c_master.o
 .text.command_scan
                0x00000000000f0c3c       0x5c build/hx20/RO/common/i2c_master.o
 .text.i2c_prepare_sysjump
                0x00000000000f0c98       0x1c build/hx20/RO/common/i2c_master.o
                0x00000000000f0c98                i2c_prepare_sysjump
 .text.i2c_read16
                0x00000000000f0cb4       0x42 build/hx20/RO/common/i2c_master.o
                0x00000000000f0cb4                i2c_read16
 .text.i2c_write16
                0x00000000000f0cf6       0x30 build/hx20/RO/common/i2c_master.o
                0x00000000000f0cf6                i2c_write16
 .text.i2c_read8
                0x00000000000f0d26       0x30 build/hx20/RO/common/i2c_master.o
                0x00000000000f0d26                i2c_read8
 .text.i2c_write8
                0x00000000000f0d56       0x1a build/hx20/RO/common/i2c_master.o
                0x00000000000f0d56                i2c_write8
 .text.i2c_update16
                0x00000000000f0d70       0x3a build/hx20/RO/common/i2c_master.o
                0x00000000000f0d70                i2c_update16
 .text.i2c_read_offset16
                0x00000000000f0daa       0x58 build/hx20/RO/common/i2c_master.o
                0x00000000000f0daa                i2c_read_offset16
 .text.i2c_write_offset16
                0x00000000000f0e02       0x5a build/hx20/RO/common/i2c_master.o
                0x00000000000f0e02                i2c_write_offset16
 .text.command_i2cxfer
                0x00000000000f0e5c      0x1d4 build/hx20/RO/common/i2c_master.o
 .text.i2c_read_offset16_block
                0x00000000000f1030       0x2e build/hx20/RO/common/i2c_master.o
                0x00000000000f1030                i2c_read_offset16_block
 .text.i2c_write_offset16_block
                0x00000000000f105e       0x6a build/hx20/RO/common/i2c_master.o
                0x00000000000f105e                i2c_write_offset16_block
 .text.i2c_read_string
                0x00000000000f10c8       0x80 build/hx20/RO/common/i2c_master.o
                0x00000000000f10c8                i2c_read_string
 .text.get_sda_from_i2c_port
                0x00000000000f1148       0x34 build/hx20/RO/common/i2c_master.o
                0x00000000000f1148                get_sda_from_i2c_port
 .text.get_scl_from_i2c_port
                0x00000000000f117c       0x34 build/hx20/RO/common/i2c_master.o
                0x00000000000f117c                get_scl_from_i2c_port
 .text.i2c_raw_set_scl
                0x00000000000f11b0       0x22 build/hx20/RO/common/i2c_master.o
                0x00000000000f11b0                i2c_raw_set_scl
 .text.i2c_raw_set_sda
                0x00000000000f11d2       0x22 build/hx20/RO/common/i2c_master.o
                0x00000000000f11d2                i2c_raw_set_sda
 .text.i2c_raw_mode
                0x00000000000f11f4       0x9c build/hx20/RO/common/i2c_master.o
                0x00000000000f11f4                i2c_raw_mode
 .text.i2c_unwedge
                0x00000000000f1290      0x104 build/hx20/RO/common/i2c_master.o
                0x00000000000f1290                i2c_unwedge
 .text.kblog_put
                0x00000000000f1394       0x28 build/hx20/RO/common/keyboard_8042.o
 .text.keystroke_enable
                0x00000000000f13bc       0x2c build/hx20/RO/common/keyboard_8042.o
 .text.scancode_bytes
                0x00000000000f13e8       0x50 build/hx20/RO/common/keyboard_8042.o
 .text.set_typematic_key
                0x00000000000f1438       0x34 build/hx20/RO/common/keyboard_8042.o
 .text.command_codeset
                0x00000000000f146c       0x4c build/hx20/RO/common/keyboard_8042.o
 .text.command_typematic
                0x00000000000f14b8       0xd0 build/hx20/RO/common/keyboard_8042.o
 .text.command_keyboard
                0x00000000000f1588       0x38 build/hx20/RO/common/keyboard_8042.o
 .text.command_keyboard_log
                0x00000000000f15c0       0xb0 build/hx20/RO/common/keyboard_8042.o
 .text.keyboard_preserve_state
                0x00000000000f1670       0x38 build/hx20/RO/common/keyboard_8042.o
 .text.update_ctl_ram.part.0
                0x00000000000f16a8       0x64 build/hx20/RO/common/keyboard_8042.o
 .text.keyboard_restore_state
                0x00000000000f170c       0x40 build/hx20/RO/common/keyboard_8042.o
 .text.command_8042_internal.constprop.0
                0x00000000000f174c      0x170 build/hx20/RO/common/keyboard_8042.o
 .text.task_wake.constprop.0
                0x00000000000f18bc        0xc build/hx20/RO/common/keyboard_8042.o
 .text.i8042_send_to_host
                0x00000000000f18c8       0x84 build/hx20/RO/common/keyboard_8042.o
 .text.send_aux_data_to_host_deferred
                0x00000000000f194c       0x48 build/hx20/RO/common/keyboard_8042.o
 .text.reset_rate_and_delay
                0x00000000000f1994       0x1c build/hx20/RO/common/keyboard_8042.o
 .text.command_controller_ram
                0x00000000000f19b0       0x54 build/hx20/RO/common/keyboard_8042.o
 .text.command_8042
                0x00000000000f1a04      0x14c build/hx20/RO/common/keyboard_8042.o
 .text.keyboard_host_write
                0x00000000000f1b50       0x28 build/hx20/RO/common/keyboard_8042.o
                0x00000000000f1b50                keyboard_host_write
 .text.keyboard_host_write_avaliable
                0x00000000000f1b78        0xc build/hx20/RO/common/keyboard_8042.o
                0x00000000000f1b78                keyboard_host_write_avaliable
 .text.keyboard_clear_buffer
                0x00000000000f1b84       0x44 build/hx20/RO/common/keyboard_8042.o
                0x00000000000f1b84                keyboard_clear_buffer
 .text.clear_typematic_key
                0x00000000000f1bc8        0xc build/hx20/RO/common/keyboard_8042.o
                0x00000000000f1bc8                clear_typematic_key
 .text.keyboard_state_changed
                0x00000000000f1bd4       0xec build/hx20/RO/common/keyboard_8042.o
                0x00000000000f1bd4                keyboard_state_changed
 .text.keyboard_protocol_task
                0x00000000000f1cc0      0x500 build/hx20/RO/common/keyboard_8042.o
                0x00000000000f1cc0                keyboard_protocol_task
 .text.send_aux_data_to_host_interrupt
                0x00000000000f21c0       0x28 build/hx20/RO/common/keyboard_8042.o
                0x00000000000f21c0                send_aux_data_to_host_interrupt
 .text.aux_buffer_available
                0x00000000000f21e8        0xc build/hx20/RO/common/keyboard_8042.o
                0x00000000000f21e8                aux_buffer_available
 .text.keyboard_update_button
                0x00000000000f21f4       0x94 build/hx20/RO/common/keyboard_8042.o
                0x00000000000f21f4                keyboard_update_button
 .text.simulate_keyboard
                0x00000000000f2288       0x80 build/hx20/RO/common/keyboard_8042.o
                0x00000000000f2288                simulate_keyboard
 .text.scancode_translate_set2_to_1
                0x00000000000f2308       0x18 build/hx20/RO/common/keyboard_8042_sharedlib.o
                0x00000000000f2308                scancode_translate_set2_to_1
 .text.kblight_set_deferred
                0x00000000000f2320       0x14 build/hx20/RO/common/keyboard_backlight.o
 .text.hc_get_keyboard_backlight
                0x00000000000f2334       0x18 build/hx20/RO/common/keyboard_backlight.o
                0x00000000000f2334                hc_get_keyboard_backlight
 .text.keyboard_backlight_init
                0x00000000000f234c       0x30 build/hx20/RO/common/keyboard_backlight.o
 .text.kblight_set
                0x00000000000f237c       0x24 build/hx20/RO/common/keyboard_backlight.o
                0x00000000000f237c                kblight_set
 .text.kblight_get
                0x00000000000f23a0        0xc build/hx20/RO/common/keyboard_backlight.o
                0x00000000000f23a0                kblight_get
 .text.kblight_enable
                0x00000000000f23ac       0x18 build/hx20/RO/common/keyboard_backlight.o
                0x00000000000f23ac                kblight_enable
 .text.kblight_suspend
                0x00000000000f23c4        0x6 build/hx20/RO/common/keyboard_backlight.o
 *fill*         0x00000000000f23ca        0x2 
 .text.kblight_resume
                0x00000000000f23cc       0x24 build/hx20/RO/common/keyboard_backlight.o
 .text.kblight_lid_change
                0x00000000000f23f0       0x24 build/hx20/RO/common/keyboard_backlight.o
 .text.cc_kblight
                0x00000000000f2414       0x4c build/hx20/RO/common/keyboard_backlight.o
 .text.hc_set_keyboard_backlight
                0x00000000000f2460       0x26 build/hx20/RO/common/keyboard_backlight.o
                0x00000000000f2460                hc_set_keyboard_backlight
 *fill*         0x00000000000f2486        0x2 
 .text.kblight_register
                0x00000000000f2488       0x1c build/hx20/RO/common/keyboard_backlight.o
                0x00000000000f2488                kblight_register
 .text.keyboard_freq_change
                0x00000000000f24a4       0x24 build/hx20/RO/common/keyboard_scan.o
 .text.read_matrix
                0x00000000000f24c8       0xac build/hx20/RO/common/keyboard_scan.o
 .text.ensure_keyboard_scanned
                0x00000000000f2574       0x58 build/hx20/RO/common/keyboard_scan.o
 .text.print_state
                0x00000000000f25cc       0x5c build/hx20/RO/common/keyboard_scan.o
 .text.simulate_key
                0x00000000000f2628       0x78 build/hx20/RO/common/keyboard_scan.o
 .text.mkbp_command_simulate_key
                0x00000000000f26a0       0x34 build/hx20/RO/common/keyboard_scan.o
 .text.command_keyboard_press
                0x00000000000f26d4       0xd8 build/hx20/RO/common/keyboard_scan.o
 .text.keyboard_scan_enable
                0x00000000000f27ac       0x44 build/hx20/RO/common/keyboard_scan.o
                0x00000000000f27ac                keyboard_scan_enable
 .text.keyboard_lid_change
                0x00000000000f27f0       0x14 build/hx20/RO/common/keyboard_scan.o
 .text.command_ksstate
                0x00000000000f2804       0x8c build/hx20/RO/common/keyboard_scan.o
 .text.set_vol_up_key
                0x00000000000f2890       0x1c build/hx20/RO/common/keyboard_scan.o
                0x00000000000f2890                set_vol_up_key
 .text.keyboard_scan_init
                0x00000000000f28ac       0xe4 build/hx20/RO/common/keyboard_scan.o
                0x00000000000f28ac                keyboard_scan_init
 .text.keyboard_scan_task
                0x00000000000f2990      0x2c4 build/hx20/RO/common/keyboard_scan.o
                0x00000000000f2990                keyboard_scan_task
 .text.get_vivaldi_keybd_config
                0x00000000000f2c54       0x28 build/hx20/RO/common/keyboard_vivaldi.o
 .text.board_vivaldi_keybd_config
                0x00000000000f2c7c        0x4 build/hx20/RO/common/keyboard_vivaldi.o
                0x00000000000f2c7c                board_vivaldi_keybd_config
 .text.vivaldi_init
                0x00000000000f2c80      0x108 build/hx20/RO/common/keyboard_vivaldi.o
 .text.led_is_supported
                0x00000000000f2d88       0x4c build/hx20/RO/common/led_common.o
 .text.led_auto_control
                0x00000000000f2dd4       0x1c build/hx20/RO/common/led_common.o
                0x00000000000f2dd4                led_auto_control
 .text.led_command_control
                0x00000000000f2df0       0x78 build/hx20/RO/common/led_common.o
 .text.led_auto_control_is_enabled
                0x00000000000f2e68       0x24 build/hx20/RO/common/led_common.o
                0x00000000000f2e68                led_auto_control_is_enabled
 .text.set_pwm_led_enable.constprop.0
                0x00000000000f2e8c       0x48 build/hx20/RO/common/led_pwm.o
 .text.set_pwm_led_color
                0x00000000000f2ed4       0x70 build/hx20/RO/common/led_pwm.o
                0x00000000000f2ed4                set_pwm_led_color
 .text.command_ledtest
                0x00000000000f2f44      0x10c build/hx20/RO/common/led_pwm.o
                0x00000000000f2f44                command_ledtest
 .text.init_leds_off
                0x00000000000f3050       0x5a build/hx20/RO/common/led_pwm.o
 *fill*         0x00000000000f30aa        0x2 
 .text.raw_lid_open
                0x00000000000f30ac       0x20 build/hx20/RO/common/lid_switch.o
 .text.lid_init
                0x00000000000f30cc       0x1c build/hx20/RO/common/lid_switch.o
 .text.hc_force_lid_open
                0x00000000000f30e8       0x24 build/hx20/RO/common/lid_switch.o
 .text.command_lidstate
                0x00000000000f310c       0x2c build/hx20/RO/common/lid_switch.o
 .text.lid_switch_open
                0x00000000000f3138       0x3c build/hx20/RO/common/lid_switch.o
 .text.command_lidopen
                0x00000000000f3174        0xa build/hx20/RO/common/lid_switch.o
 *fill*         0x00000000000f317e        0x2 
 .text.lid_switch_close
                0x00000000000f3180       0x3c build/hx20/RO/common/lid_switch.o
 .text.lid_change_deferred
                0x00000000000f31bc       0x28 build/hx20/RO/common/lid_switch.o
 .text.command_lidclose
                0x00000000000f31e4        0xa build/hx20/RO/common/lid_switch.o
 *fill*         0x00000000000f31ee        0x2 
 .text.lid_is_open
                0x00000000000f31f0        0xc build/hx20/RO/common/lid_switch.o
                0x00000000000f31f0                lid_is_open
 .text.lid_interrupt
                0x00000000000f31fc       0x10 build/hx20/RO/common/lid_switch.o
                0x00000000000f31fc                lid_interrupt
 .text.startup.main
                0x00000000000f320c       0xc0 build/hx20/RO/common/main.o
                0x00000000000f320c                main
 .text.command_mem_dump
                0x00000000000f32cc      0x154 build/hx20/RO/common/memory_commands.o
 .text.command_read_word
                0x00000000000f3420      0x104 build/hx20/RO/common/memory_commands.o
 .text.panic_txchar
                0x00000000000f3524       0x20 build/hx20/RO/common/panic_output.o
 .text.panic_puts
                0x00000000000f3544       0x20 build/hx20/RO/common/panic_output.o
                0x00000000000f3544                panic_puts
 .text.panic_printf
                0x00000000000f3564       0x30 build/hx20/RO/common/panic_output.o
                0x00000000000f3564                panic_printf
 .text.panic_reboot
                0x00000000000f3594       0x14 build/hx20/RO/common/panic_output.o
                0x00000000000f3594                panic_reboot
 .text.panic_assert_fail
                0x00000000000f35a8       0x24 build/hx20/RO/common/panic_output.o
                0x00000000000f35a8                panic_assert_fail
 .text.command_crash
                0x00000000000f35cc       0xc8 build/hx20/RO/common/panic_output.o
 .text.panic_get_data
                0x00000000000f3694       0x2c build/hx20/RO/common/panic_output.o
                0x00000000000f3694                panic_get_data
 .text.panic_init
                0x00000000000f36c0       0x20 build/hx20/RO/common/panic_output.o
 .text.command_panicinfo
                0x00000000000f36e0       0x4c build/hx20/RO/common/panic_output.o
 .text.get_panic_data_start
                0x00000000000f372c       0x20 build/hx20/RO/common/panic_output.o
                0x00000000000f372c                get_panic_data_start
 .text.host_command_panic_info
                0x00000000000f374c       0x64 build/hx20/RO/common/panic_output.o
                0x00000000000f374c                host_command_panic_info
 .text.get_panic_data_write
                0x00000000000f37b0       0x8c build/hx20/RO/common/panic_output.o
                0x00000000000f37b0                get_panic_data_write
 .text.peci_get_cpu_temp
                0x00000000000f383c       0x50 build/hx20/RO/common/peci.o
 .text.peci_cmd
                0x00000000000f388c      0x15c build/hx20/RO/common/peci.o
 .text.command_peci_temp
                0x00000000000f39e8       0x34 build/hx20/RO/common/peci.o
 .text.peci_temp_sensor_get_val
                0x00000000000f3a1c       0x1e build/hx20/RO/common/peci.o
                0x00000000000f3a1c                peci_temp_sensor_get_val
 *fill*         0x00000000000f3a3a        0x2 
 .text.port80_command_read
                0x00000000000f3a3c       0xb8 build/hx20/RO/common/port80.o
                0x00000000000f3a3c                port80_command_read
 .text.port80_dump_buffer
                0x00000000000f3af4       0xac build/hx20/RO/common/port80.o
 .text.command_port80
                0x00000000000f3ba0       0x98 build/hx20/RO/common/port80.o
 .text.port_80_write
                0x00000000000f3c38       0x50 build/hx20/RO/common/port80.o
                0x00000000000f3c38                port_80_write
 .text.port80_log_resume
                0x00000000000f3c88        0x8 build/hx20/RO/common/port80.o
 .text.port_80_last
                0x00000000000f3c90       0x18 build/hx20/RO/common/port80.o
                0x00000000000f3c90                port_80_last
 .text.command_powerbtn
                0x00000000000f3ca8       0x84 build/hx20/RO/common/power_button.o
 .text.power_button_signal_asserted
                0x00000000000f3d2c       0x10 build/hx20/RO/common/power_button.o
                0x00000000000f3d2c                power_button_signal_asserted
 .text.raw_power_button_pressed
                0x00000000000f3d3c       0x14 build/hx20/RO/common/power_button.o
 .text.power_button_init
                0x00000000000f3d50       0x1c build/hx20/RO/common/power_button.o
 .text.power_button_change_deferred
                0x00000000000f3d6c       0x6c build/hx20/RO/common/power_button.o
 .text.power_button_is_pressed
                0x00000000000f3dd8        0xc build/hx20/RO/common/power_button.o
                0x00000000000f3dd8                power_button_is_pressed
 .text.power_button_interrupt
                0x00000000000f3de4       0x2c build/hx20/RO/common/power_button.o
                0x00000000000f3de4                power_button_interrupt
 .text.power_button_set_simulated_state
                0x00000000000f3e10       0x1c build/hx20/RO/common/power_button.o
                0x00000000000f3e10                power_button_set_simulated_state
 .text.snprintf_addchar
                0x00000000000f3e2c       0x1a build/hx20/RO/common/printf.o
 *fill*         0x00000000000f3e46        0x2 
 .text.vfnprintf
                0x00000000000f3e48      0x3dc build/hx20/RO/common/printf.o
                0x00000000000f3e48                vfnprintf
 .text.vsnprintf
                0x00000000000f4224       0x38 build/hx20/RO/common/printf.o
                0x00000000000f4224                vsnprintf
 .text.snprintf
                0x00000000000f425c       0x1a build/hx20/RO/common/printf.o
                0x00000000000f425c                snprintf
 .text.pwm_pin_init
                0x00000000000f4276        0x8 build/hx20/RO/common/pwm.o
 .text.pwm_set_raw_duty
                0x00000000000f427e       0x16 build/hx20/RO/common/pwm.o
                0x00000000000f427e                pwm_set_raw_duty
 .text.host_command_pwm_set_duty
                0x00000000000f4294       0x38 build/hx20/RO/common/pwm.o
 .text.pwm_get_raw_duty
                0x00000000000f42cc       0x14 build/hx20/RO/common/pwm.o
                0x00000000000f42cc                pwm_get_raw_duty
 .text.host_command_pwm_get_duty
                0x00000000000f42e0       0x2a build/hx20/RO/common/pwm.o
 *fill*         0x00000000000f430a        0x2 
 .text.print_channel
                0x00000000000f430c       0x4c build/hx20/RO/common/pwm.o
 .text.cc_pwm_duty
                0x00000000000f4358       0xd4 build/hx20/RO/common/pwm.o
 .text.queue_action_null
                0x00000000000f442c        0x2 build/hx20/RO/common/queue.o
 .text.queue_read_safe
                0x00000000000f442e       0x48 build/hx20/RO/common/queue.o
 *fill*         0x00000000000f4476        0x2 
 .text.queue_init
                0x00000000000f4478       0x50 build/hx20/RO/common/queue.o
                0x00000000000f4478                queue_init
 .text.queue_is_empty
                0x00000000000f44c8        0xe build/hx20/RO/common/queue.o
                0x00000000000f44c8                queue_is_empty
 .text.queue_count
                0x00000000000f44d6        0xa build/hx20/RO/common/queue.o
                0x00000000000f44d6                queue_count
 .text.queue_space
                0x00000000000f44e0        0xc build/hx20/RO/common/queue.o
                0x00000000000f44e0                queue_space
 .text.queue_advance_head
                0x00000000000f44ec       0x24 build/hx20/RO/common/queue.o
                0x00000000000f44ec                queue_advance_head
 .text.queue_advance_tail
                0x00000000000f4510       0x24 build/hx20/RO/common/queue.o
                0x00000000000f4510                queue_advance_tail
 .text.queue_add_unit
                0x00000000000f4534       0x38 build/hx20/RO/common/queue.o
                0x00000000000f4534                queue_add_unit
 .text.queue_remove_unit
                0x00000000000f456c       0x3c build/hx20/RO/common/queue.o
                0x00000000000f456c                queue_remove_unit
 .text.queue_peek_memcpy
                0x00000000000f45a8       0x32 build/hx20/RO/common/queue.o
                0x00000000000f45a8                queue_peek_memcpy
 *fill*         0x00000000000f45da        0x2 
 .text.queue_peek_units
                0x00000000000f45dc       0x14 build/hx20/RO/common/queue.o
                0x00000000000f45dc                queue_peek_units
 .text.shared_mem_size
                0x00000000000f45f0       0x10 build/hx20/RO/common/shared_mem.o
                0x00000000000f45f0                shared_mem_size
 .text.command_shmem
                0x00000000000f4600       0x3c build/hx20/RO/common/shared_mem.o
 .text.shared_mem_acquire
                0x00000000000f463c       0x38 build/hx20/RO/common/shared_mem.o
                0x00000000000f463c                shared_mem_acquire
 .text.shared_mem_release
                0x00000000000f4674        0xc build/hx20/RO/common/shared_mem.o
                0x00000000000f4674                shared_mem_release
 .text.command_spixfer
                0x00000000000f4680       0xdc build/hx20/RO/common/spi_commands.o
 .text.spi_flash_write_enable
                0x00000000000f475c       0x24 build/hx20/RO/common/spi_flash.o
 .text.spi_flash_get_status1
                0x00000000000f4780       0x30 build/hx20/RO/common/spi_flash.o
                0x00000000000f4780                spi_flash_get_status1
 .text.spi_flash_wait
                0x00000000000f47b0       0x44 build/hx20/RO/common/spi_flash.o
                0x00000000000f47b0                spi_flash_wait
 .text.spi_flash_erase_block.part.0
                0x00000000000f47f4       0x3c build/hx20/RO/common/spi_flash.o
 .text.command_spi_flashread_sr
                0x00000000000f4830       0x30 build/hx20/RO/common/spi_flash.o
 .text.spi_flash_read
                0x00000000000f4860       0x74 build/hx20/RO/common/spi_flash.o
                0x00000000000f4860                spi_flash_read
 .text.command_spi_flashread
                0x00000000000f48d4      0x118 build/hx20/RO/common/spi_flash.o
 .text.spi_flash_erase
                0x00000000000f49ec       0x86 build/hx20/RO/common/spi_flash.o
                0x00000000000f49ec                spi_flash_erase
 *fill*         0x00000000000f4a72        0x2 
 .text.spi_flash_write
                0x00000000000f4a74       0xa0 build/hx20/RO/common/spi_flash.o
                0x00000000000f4a74                spi_flash_write
 .text.spi_flash_get_jedec_id
                0x00000000000f4b14       0x24 build/hx20/RO/common/spi_flash.o
                0x00000000000f4b14                spi_flash_get_jedec_id
 .text.spi_flash_get_unique_id
                0x00000000000f4b38       0x34 build/hx20/RO/common/spi_flash.o
                0x00000000000f4b38                spi_flash_get_unique_id
 .text.command_spi_flashinfo
                0x00000000000f4b6c       0x98 build/hx20/RO/common/spi_flash.o
 .text.spi_flash_check_wp
                0x00000000000f4c04        0xc build/hx20/RO/common/spi_flash.o
                0x00000000000f4c04                spi_flash_check_wp
 .text.spi_flash_set_status
                0x00000000000f4c10       0x4c build/hx20/RO/common/spi_flash.o
                0x00000000000f4c10                spi_flash_set_status
 .text.command_spi_flashwrite_sr
                0x00000000000f4c5c       0x4c build/hx20/RO/common/spi_flash.o
 .text.spi_flash_set_wp
                0x00000000000f4ca8       0x3e build/hx20/RO/common/spi_flash.o
                0x00000000000f4ca8                spi_flash_set_wp
 .text.spi_flash_check_protect
                0x00000000000f4ce6       0x42 build/hx20/RO/common/spi_flash.o
                0x00000000000f4ce6                spi_flash_check_protect
 .text.command_spi_flasherase
                0x00000000000f4d28       0x54 build/hx20/RO/common/spi_flash.o
 .text.command_spi_flashwrite
                0x00000000000f4d7c       0xa8 build/hx20/RO/common/spi_flash.o
 .text.spi_flash_set_protect
                0x00000000000f4e24       0x46 build/hx20/RO/common/spi_flash.o
                0x00000000000f4e24                spi_flash_set_protect
 *fill*         0x00000000000f4e6a        0x2 
 .text.command_spi_flashprotect
                0x00000000000f4e6c       0x40 build/hx20/RO/common/spi_flash.o
 .text.spi_flash_reg_to_protect
                0x00000000000f4eac       0xb0 build/hx20/RO/common/spi_flash_reg.o
                0x00000000000f4eac                spi_flash_reg_to_protect
 .text.spi_flash_protect_to_reg
                0x00000000000f4f5c       0xbc build/hx20/RO/common/spi_flash_reg.o
                0x00000000000f4f5c                spi_flash_protect_to_reg
 .text.command_mmapinfo
                0x00000000000f5018       0x58 build/hx20/RO/common/switch.o
 .text.switch_update
                0x00000000000f5070       0x70 build/hx20/RO/common/switch.o
 .text.switch_init
                0x00000000000f50e0       0x2c build/hx20/RO/common/switch.o
 .text.command_system_lock
                0x00000000000f510c       0x10 build/hx20/RO/common/system.o
 .text.jump_to_image
                0x00000000000f511c       0x60 build/hx20/RO/common/system.o
 .text.host_command_get_board_version
                0x00000000000f517c       0x30 build/hx20/RO/common/system.o
                0x00000000000f517c                host_command_get_board_version
 .text.command_hibernate
                0x00000000000f51ac       0x80 build/hx20/RO/common/system.o
 .text.command_reboot
                0x00000000000f522c      0x110 build/hx20/RO/common/system.o
 .text.host_command_get_chip_info
                0x00000000000f533c       0x3a build/hx20/RO/common/system.o
 *fill*         0x00000000000f5376        0x2 
 .text.system_is_locked
                0x00000000000f5378       0x20 build/hx20/RO/common/system.o
                0x00000000000f5378                system_is_locked
 .text.sysinfo  0x00000000000f5398      0x114 build/hx20/RO/common/system.o
 .text.host_command_sysinfo
                0x00000000000f54ac       0x16 build/hx20/RO/common/system.o
 *fill*         0x00000000000f54c2        0x2 
 .text.system_usable_ram_end
                0x00000000000f54c4       0x10 build/hx20/RO/common/system.o
                0x00000000000f54c4                system_usable_ram_end
 .text.system_get_reset_flags
                0x00000000000f54d4        0xc build/hx20/RO/common/system.o
                0x00000000000f54d4                system_get_reset_flags
 .text.system_set_reset_flags
                0x00000000000f54e0       0x10 build/hx20/RO/common/system.o
                0x00000000000f54e0                system_set_reset_flags
 .text.system_print_reset_flags
                0x00000000000f54f0       0x78 build/hx20/RO/common/system.o
                0x00000000000f54f0                system_print_reset_flags
 .text.system_jumped_to_this_image
                0x00000000000f5568        0xc build/hx20/RO/common/system.o
                0x00000000000f5568                system_jumped_to_this_image
 .text.system_jumped_late
                0x00000000000f5574       0x1c build/hx20/RO/common/system.o
                0x00000000000f5574                system_jumped_late
 .text.system_add_jump_tag
                0x00000000000f5590       0x50 build/hx20/RO/common/system.o
                0x00000000000f5590                system_add_jump_tag
 .text.system_get_jump_tag
                0x00000000000f55e0       0x44 build/hx20/RO/common/system.o
                0x00000000000f55e0                system_get_jump_tag
 .text.system_get_image_copy
                0x00000000000f5624        0x4 build/hx20/RO/common/system.o
                0x00000000000f5624                system_get_image_copy
 .text.ec_image_to_string
                0x00000000000f5628       0x14 build/hx20/RO/common/system.o
                0x00000000000f5628                ec_image_to_string
 .text.system_get_image_copy_string
                0x00000000000f563c        0xe build/hx20/RO/common/system.o
                0x00000000000f563c                system_get_image_copy_string
 *fill*         0x00000000000f564a        0x2 
 .text.system_run_image_copy_with_flags
                0x00000000000f564c       0x78 build/hx20/RO/common/system.o
 .text.command_sysinfo
                0x00000000000f56c4       0xd4 build/hx20/RO/common/system.o
 .text.system_run_image_copy
                0x00000000000f5798        0x6 build/hx20/RO/common/system.o
                0x00000000000f5798                system_run_image_copy
 *fill*         0x00000000000f579e        0x2 
 .text.command_sysjump
                0x00000000000f57a0       0xbc build/hx20/RO/common/system.o
 .text.system_get_active_copy
                0x00000000000f585c       0x22 build/hx20/RO/common/system.o
                0x00000000000f585c                system_get_active_copy
 *fill*         0x00000000000f587e        0x2 
 .text.handle_pending_reboot
                0x00000000000f5880       0x64 build/hx20/RO/common/system.o
 .text.system_common_shutdown
                0x00000000000f58e4       0x24 build/hx20/RO/common/system.o
 .text.host_command_reboot
                0x00000000000f5908       0x78 build/hx20/RO/common/system.o
                0x00000000000f5908                host_command_reboot
 .text.system_get_update_copy
                0x00000000000f5980        0x4 build/hx20/RO/common/system.o
                0x00000000000f5980                system_get_update_copy
 .text.flash_get_rw_offset
                0x00000000000f5984       0x18 build/hx20/RO/common/system.o
                0x00000000000f5984                flash_get_rw_offset
 .text.system_get_image_data
                0x00000000000f599c       0xc4 build/hx20/RO/common/system.o
                0x00000000000f599c                system_get_image_data
 .text.system_get_version
                0x00000000000f5a60       0x14 build/hx20/RO/common/system.o
                0x00000000000f5a60                system_get_version
 .text.host_command_get_version
                0x00000000000f5a74       0x60 build/hx20/RO/common/system.o
 .text.system_get_build_info
                0x00000000000f5ad4        0x8 build/hx20/RO/common/system.o
                0x00000000000f5ad4                system_get_build_info
 .text.command_version
                0x00000000000f5adc       0xe4 build/hx20/RO/common/system.o
 .text.host_command_build_info
                0x00000000000f5bc0       0x22 build/hx20/RO/common/system.o
 *fill*         0x00000000000f5be2        0x2 
 .text.system_common_pre_init
                0x00000000000f5be4       0xb0 build/hx20/RO/common/system.o
                0x00000000000f5be4                system_common_pre_init
 .text.temp_sensor_init
                0x00000000000f5c94       0x44 build/hx20/RO/common/temp_sensor.o
 .text.temp_sensor_command_get_info
                0x00000000000f5cd8       0x38 build/hx20/RO/common/temp_sensor.o
                0x00000000000f5cd8                temp_sensor_command_get_info
 .text.temp_sensor_read
                0x00000000000f5d10       0x18 build/hx20/RO/common/temp_sensor.o
                0x00000000000f5d10                temp_sensor_read
 .text.update_mapped_memory
                0x00000000000f5d28       0x3c build/hx20/RO/common/temp_sensor.o
 .text.command_temps
                0x00000000000f5d64       0xe8 build/hx20/RO/common/temp_sensor.o
 .text.thermal_command_set_threshold
                0x00000000000f5e4c       0x38 build/hx20/RO/common/thermal.o
 .text.thermal_command_get_threshold
                0x00000000000f5e84       0x3c build/hx20/RO/common/thermal.o
 .text.command_thermalget
                0x00000000000f5ec0       0xc8 build/hx20/RO/common/thermal.o
 .text.command_thermalset
                0x00000000000f5f88       0xc8 build/hx20/RO/common/thermal.o
 .text.thermal_fan_percent
                0x00000000000f6050       0x1e build/hx20/RO/common/thermal.o
                0x00000000000f6050                thermal_fan_percent
 *fill*         0x00000000000f606e        0x2 
 .text.thermal_control
                0x00000000000f6070      0x270 build/hx20/RO/common/thermal.o
 .text.prochot_input_deferred
                0x00000000000f62e0       0x70 build/hx20/RO/common/throttle_ap.o
 .text.command_apthrottle
                0x00000000000f6350       0x64 build/hx20/RO/common/throttle_ap.o
 .text.throttle_ap
                0x00000000000f63b4       0x80 build/hx20/RO/common/throttle_ap.o
                0x00000000000f63b4                throttle_ap
 .text.udelay   0x00000000000f6434       0x16 build/hx20/RO/common/timer.o
                0x00000000000f6434                udelay
 .text.command_wait
                0x00000000000f644a       0x36 build/hx20/RO/common/timer.o
 .text.timer_cancel
                0x00000000000f6480       0x40 build/hx20/RO/common/timer.o
                0x00000000000f6480                timer_cancel
 .text.usleep   0x00000000000f64c0       0x6c build/hx20/RO/common/timer.o
                0x00000000000f64c0                usleep
 .text.get_time
                0x00000000000f652c       0x24 build/hx20/RO/common/timer.o
                0x00000000000f652c                get_time
 .text.timestamp_expired
                0x00000000000f6550       0x22 build/hx20/RO/common/timer.o
                0x00000000000f6550                timestamp_expired
 *fill*         0x00000000000f6572        0x2 
 .text.process_timers
                0x00000000000f6574       0xc8 build/hx20/RO/common/timer.o
                0x00000000000f6574                process_timers
 .text.timer_arm
                0x00000000000f663c       0x7c build/hx20/RO/common/timer.o
                0x00000000000f663c                timer_arm
 .text.timer_sysjump
                0x00000000000f66b8       0x1c build/hx20/RO/common/timer.o
 .text.command_get_time
                0x00000000000f66d4       0x24 build/hx20/RO/common/timer.o
 .text.timer_print_info
                0x00000000000f66f8       0x90 build/hx20/RO/common/timer.o
                0x00000000000f66f8                timer_print_info
 .text.timer_init
                0x00000000000f6788       0x38 build/hx20/RO/common/timer.o
                0x00000000000f6788                timer_init
 .text.__tx_char_raw.constprop.0
                0x00000000000f67c0       0x44 build/hx20/RO/common/uart_buffering.o
 .text.__tx_char
                0x00000000000f6804       0x20 build/hx20/RO/common/uart_buffering.o
 .text.uart_process_output
                0x00000000000f6824       0x40 build/hx20/RO/common/uart_buffering.o
                0x00000000000f6824                uart_process_output
 .text.uart_process_input
                0x00000000000f6864       0x48 build/hx20/RO/common/uart_buffering.o
                0x00000000000f6864                uart_process_input
 .text.uart_putc
                0x00000000000f68ac       0x1a build/hx20/RO/common/uart_buffering.o
                0x00000000000f68ac                uart_putc
 .text.uart_puts
                0x00000000000f68c6       0x28 build/hx20/RO/common/uart_buffering.o
                0x00000000000f68c6                uart_puts
 *fill*         0x00000000000f68ee        0x2 
 .text.uart_vprintf
                0x00000000000f68f0       0x1c build/hx20/RO/common/uart_buffering.o
                0x00000000000f68f0                uart_vprintf
 .text.uart_flush_output
                0x00000000000f690c       0x34 build/hx20/RO/common/uart_buffering.o
                0x00000000000f690c                uart_flush_output
 .text.uart_getc
                0x00000000000f6940       0x34 build/hx20/RO/common/uart_buffering.o
                0x00000000000f6940                uart_getc
 .text.uart_console_read_buffer_init
                0x00000000000f6974       0x48 build/hx20/RO/common/uart_buffering.o
                0x00000000000f6974                uart_console_read_buffer_init
 .text.host_command_console_snapshot
                0x00000000000f69bc        0x4 build/hx20/RO/common/uart_buffering.o
 .text.uart_console_read_buffer
                0x00000000000f69c0       0x64 build/hx20/RO/common/uart_buffering.o
                0x00000000000f69c0                uart_console_read_buffer
 .text.host_command_console_read
                0x00000000000f6a24       0x2e build/hx20/RO/common/uart_buffering.o
 .text.host_command_get_uptime_info
                0x00000000000f6a52       0x5a build/hx20/RO/common/uptime.o
 .text.find_base
                0x00000000000f6aac       0x42 build/hx20/RO/common/util.o
 .text.strlen   0x00000000000f6aee       0x10 build/hx20/RO/common/util.o
                0x00000000000f6aee                strlen
 .text.strnlen  0x00000000000f6afe       0x12 build/hx20/RO/common/util.o
                0x00000000000f6afe                strnlen
 .text.isspace  0x00000000000f6b10       0x18 build/hx20/RO/common/util.o
                0x00000000000f6b10                isspace
 .text.isdigit  0x00000000000f6b28        0xc build/hx20/RO/common/util.o
                0x00000000000f6b28                isdigit
 .text.isalpha  0x00000000000f6b34       0x10 build/hx20/RO/common/util.o
                0x00000000000f6b34                isalpha
 .text.isprint  0x00000000000f6b44        0xc build/hx20/RO/common/util.o
                0x00000000000f6b44                isprint
 .text.tolower  0x00000000000f6b50        0xc build/hx20/RO/common/util.o
                0x00000000000f6b50                tolower
 .text.strcasecmp
                0x00000000000f6b5c       0x28 build/hx20/RO/common/util.o
                0x00000000000f6b5c                strcasecmp
 .text.strncasecmp
                0x00000000000f6b84       0x32 build/hx20/RO/common/util.o
                0x00000000000f6b84                strncasecmp
 .text.atoi     0x00000000000f6bb6       0x46 build/hx20/RO/common/util.o
                0x00000000000f6bb6                atoi
 .text.strtoi   0x00000000000f6bfc       0xaa build/hx20/RO/common/util.o
                0x00000000000f6bfc                strtoi
 .text.strtoul  0x00000000000f6ca6       0xda build/hx20/RO/common/util.o
                0x00000000000f6ca6                strtoul
 .text.parse_bool
                0x00000000000f6d80       0x68 build/hx20/RO/common/util.o
                0x00000000000f6d80                parse_bool
 .text.memcpy   0x00000000000f6de8       0x74 build/hx20/RO/common/util.o
                0x00000000000f6de8                memcpy
 .text.memset   0x00000000000f6e5c       0x5e build/hx20/RO/common/util.o
                0x00000000000f6e5c                memset
 .text.memmove  0x00000000000f6eba       0x8a build/hx20/RO/common/util.o
                0x00000000000f6eba                memmove
 .text.strzcpy  0x00000000000f6f44       0x26 build/hx20/RO/common/util.o
                0x00000000000f6f44                strzcpy
 .text.strncmp  0x00000000000f6f6a       0x26 build/hx20/RO/common/util.o
                0x00000000000f6f6a                strncmp
 .text.uint64divmod
                0x00000000000f6f90       0x96 build/hx20/RO/common/util.o
                0x00000000000f6f90                uint64divmod
 .text.cond_init
                0x00000000000f7026        0xa build/hx20/RO/common/util.o
                0x00000000000f7026                cond_init
 .text.cond_is  0x00000000000f7030        0xe build/hx20/RO/common/util.o
                0x00000000000f7030                cond_is
 .text.cond_set
                0x00000000000f703e       0x2a build/hx20/RO/common/util.o
                0x00000000000f703e                cond_set
 .text.cond_went
                0x00000000000f7068       0x1c build/hx20/RO/common/util.o
                0x00000000000f7068                cond_went
 .text.parse_offset_size
                0x00000000000f7084       0x68 build/hx20/RO/common/util.o
                0x00000000000f7084                parse_offset_size
 .text.vstore_info
                0x00000000000f70ec       0x2c build/hx20/RO/common/vstore.o
 .text.vstore_clear_lock
                0x00000000000f7118        0xc build/hx20/RO/common/vstore.o
 .text.vstore_read
                0x00000000000f7124       0x24 build/hx20/RO/common/vstore.o
 .text.vstore_write
                0x00000000000f7148       0x2c build/hx20/RO/common/vstore.o
 .text.vstore_preserve_state
                0x00000000000f7174       0x14 build/hx20/RO/common/vstore.o
 .text.vstore_init
                0x00000000000f7188       0x30 build/hx20/RO/common/vstore.o
 .text.cpu_init
                0x00000000000f71b8       0x1e build/hx20/RO/core/cortex-m/cpu.o
                0x00000000000f71b8                cpu_init
 *fill*         0x00000000000f71d6        0x2 
 .text.print_reg
                0x00000000000f71d8       0x74 build/hx20/RO/core/cortex-m/panic.o
 .text.do_separate
                0x00000000000f724c       0x1c build/hx20/RO/core/cortex-m/panic.o
 .text.panic_data_print
                0x00000000000f7268      0x1b8 build/hx20/RO/core/cortex-m/panic.o
                0x00000000000f7268                panic_data_print
 .text.report_panic
                0x00000000000f7420      0x120 build/hx20/RO/core/cortex-m/panic.o
                0x00000000000f7420                report_panic
 .text.exception_panic
                0x00000000000f7540       0x24 build/hx20/RO/core/cortex-m/panic.o
                0x00000000000f7540                exception_panic
 .text.software_panic
                0x00000000000f7564        0x8 build/hx20/RO/core/cortex-m/panic.o
                0x00000000000f7564                software_panic
 .text.panic_set_reason
                0x00000000000f756c       0x34 build/hx20/RO/core/cortex-m/panic.o
                0x00000000000f756c                panic_set_reason
 .text.panic_get_reason
                0x00000000000f75a0       0x2c build/hx20/RO/core/cortex-m/panic.o
                0x00000000000f75a0                panic_get_reason
 .text.bus_fault_handler
                0x00000000000f75cc       0x10 build/hx20/RO/core/cortex-m/panic.o
                0x00000000000f75cc                bus_fault_handler
 .text          0x00000000000f75dc       0x50 build/hx20/RO/core/cortex-m/switch.o
                0x00000000000f75dc                __switchto
                0x00000000000f75f2                __task_start
 .text.deprecated_atomic_or
                0x00000000000f762c       0x14 build/hx20/RO/core/cortex-m/task.o
 .text.__idle   0x00000000000f7640        0x4 build/hx20/RO/core/cortex-m/task.o
                0x00000000000f7640                __idle
 .text.interrupt_disable
                0x00000000000f7644        0x4 build/hx20/RO/core/cortex-m/task.o
                0x00000000000f7644                interrupt_disable
 .text.interrupt_enable
                0x00000000000f7648        0x4 build/hx20/RO/core/cortex-m/task.o
                0x00000000000f7648                interrupt_enable
 .text.in_interrupt_context
                0x00000000000f764c        0xa build/hx20/RO/core/cortex-m/task.o
                0x00000000000f764c                in_interrupt_context
 *fill*         0x00000000000f7656        0x2 
 .text.__wait_evt
                0x00000000000f7658       0xc0 build/hx20/RO/core/cortex-m/task.o
 .text.task_get_current
                0x00000000000f7718       0x20 build/hx20/RO/core/cortex-m/task.o
                0x00000000000f7718                task_get_current
 .text.task_get_event_bitmap
                0x00000000000f7738       0x14 build/hx20/RO/core/cortex-m/task.o
                0x00000000000f7738                task_get_event_bitmap
 .text.task_start_called
                0x00000000000f774c        0xc build/hx20/RO/core/cortex-m/task.o
                0x00000000000f774c                task_start_called
 .text.svc_handler
                0x00000000000f7758      0x144 build/hx20/RO/core/cortex-m/task.o
                0x00000000000f7758                svc_handler
 .text.__schedule
                0x00000000000f789c        0x4 build/hx20/RO/core/cortex-m/task.o
                0x00000000000f789c                __schedule
 .text.task_start_irq_handler
                0x00000000000f78a0       0x44 build/hx20/RO/core/cortex-m/task.o
                0x00000000000f78a0                task_start_irq_handler
 .text.task_resched_if_needed
                0x00000000000f78e4       0x20 build/hx20/RO/core/cortex-m/task.o
                0x00000000000f78e4                task_resched_if_needed
 .text.task_set_event
                0x00000000000f7904       0x64 build/hx20/RO/core/cortex-m/task.o
                0x00000000000f7904                task_set_event
 .text.task_wait_event
                0x00000000000f7968        0x6 build/hx20/RO/core/cortex-m/task.o
                0x00000000000f7968                task_wait_event
 *fill*         0x00000000000f796e        0x2 
 .text.task_exit_trap
                0x00000000000f7970       0x2c build/hx20/RO/core/cortex-m/task.o
 .text.task_wait_event_mask
                0x00000000000f799c       0x5c build/hx20/RO/core/cortex-m/task.o
                0x00000000000f799c                task_wait_event_mask
 .text.task_enable_all_tasks
                0x00000000000f79f8       0x18 build/hx20/RO/core/cortex-m/task.o
                0x00000000000f79f8                task_enable_all_tasks
 .text.task_enable_irq
                0x00000000000f7a10       0x22 build/hx20/RO/core/cortex-m/task.o
                0x00000000000f7a10                task_enable_irq
 *fill*         0x00000000000f7a32        0x2 
 .text.task_disable_irq
                0x00000000000f7a34       0x20 build/hx20/RO/core/cortex-m/task.o
                0x00000000000f7a34                task_disable_irq
 .text.task_clear_pending_irq
                0x00000000000f7a54       0x20 build/hx20/RO/core/cortex-m/task.o
                0x00000000000f7a54                task_clear_pending_irq
 .text.task_trigger_irq
                0x00000000000f7a74        0xa build/hx20/RO/core/cortex-m/task.o
                0x00000000000f7a74                task_trigger_irq
 *fill*         0x00000000000f7a7e        0x2 
 .text.mutex_lock
                0x00000000000f7a80       0x7c build/hx20/RO/core/cortex-m/task.o
                0x00000000000f7a80                mutex_lock
 .text.mutex_unlock
                0x00000000000f7afc       0x50 build/hx20/RO/core/cortex-m/task.o
                0x00000000000f7afc                mutex_unlock
 .text.task_print_list
                0x00000000000f7b4c       0xa4 build/hx20/RO/core/cortex-m/task.o
                0x00000000000f7b4c                task_print_list
 .text.command_task_info
                0x00000000000f7bf0       0xc4 build/hx20/RO/core/cortex-m/task.o
                0x00000000000f7bf0                command_task_info
 .text.task_pre_init
                0x00000000000f7cb4      0x11c build/hx20/RO/core/cortex-m/task.o
                0x00000000000f7cb4                task_pre_init
 .text.task_start
                0x00000000000f7dd0       0x34 build/hx20/RO/core/cortex-m/task.o
                0x00000000000f7dd0                task_start
 .text.__aeabi_uldivmod
                0x00000000000f7e04       0xc4 build/hx20/RO/core/cortex-m/uldivmod.o
                0x00000000000f7e04                __aeabi_uldivmod
 .text.default_handler
                0x00000000000f7ec8        0x4 build/hx20/RO/core/cortex-m/vecttable.o
                0x00000000000f7ec8                irq_98_handler
                0x00000000000f7ec8                irq_119_handler
                0x00000000000f7ec8                irq_38_handler
                0x00000000000f7ec8                irq_121_handler
                0x00000000000f7ec8                irq_166_handler
                0x00000000000f7ec8                irq_18_handler
                0x00000000000f7ec8                irq_92_handler
                0x00000000000f7ec8                irq_203_handler
                0x00000000000f7ec8                irq_248_handler
                0x00000000000f7ec8                irq_50_handler
                0x00000000000f7ec8                irq_228_handler
                0x00000000000f7ec8                irq_122_handler
                0x00000000000f7ec8                irq_167_handler
                0x00000000000f7ec8                irq_30_handler
                0x00000000000f7ec8                irq_160_handler
                0x00000000000f7ec8                irq_235_handler
                0x00000000000f7ec8                irq_195_handler
                0x00000000000f7ec8                irq_51_handler
                0x00000000000f7ec8                irq_81_handler
                0x00000000000f7ec8                irq_221_handler
                0x00000000000f7ec8                irq_123_handler
                0x00000000000f7ec8                irq_168_handler
                0x00000000000f7ec8                irq_237_handler
                0x00000000000f7ec8                irq_199_handler
                0x00000000000f7ec8                irq_242_handler
                0x00000000000f7ec8                irq_24_handler
                0x00000000000f7ec8                irq_5_handler
                0x00000000000f7ec8                irq_6_handler
                0x00000000000f7ec8                irq_86_handler
                0x00000000000f7ec8                irq_143_handler
                0x00000000000f7ec8                irq_188_handler
                0x00000000000f7ec8                irq_142_handler
                0x00000000000f7ec8                irq_187_handler
                0x00000000000f7ec8                irq_75_handler
                0x00000000000f7ec8                irq_229_handler
                0x00000000000f7ec8                irq_218_handler
                0x00000000000f7ec8                irq_241_handler
                0x00000000000f7ec8                irq_206_handler
                0x00000000000f7ec8                irq_115_handler
                0x00000000000f7ec8                irq_132_handler
                0x00000000000f7ec8                irq_175_handler
                0x00000000000f7ec8                irq_48_handler
                0x00000000000f7ec8                irq_171_handler
                0x00000000000f7ec8                irq_44_handler
                0x00000000000f7ec8                irq_231_handler
                0x00000000000f7ec8                irq_193_handler
                0x00000000000f7ec8                irq_14_handler
                0x00000000000f7ec8                irq_234_handler
                0x00000000000f7ec8                irq_230_handler
                0x00000000000f7ec8                irq_27_handler
                0x00000000000f7ec8                irq_70_handler
                0x00000000000f7ec8                irq_131_handler
                0x00000000000f7ec8                irq_174_handler
                0x00000000000f7ec8                irq_211_handler
                0x00000000000f7ec8                irq_254_handler
                0x00000000000f7ec8                irq_138_handler
                0x00000000000f7ec8                irq_244_handler
                0x00000000000f7ec8                irq_213_handler
                0x00000000000f7ec8                irq_153_handler
                0x00000000000f7ec8                irq_8_handler
                0x00000000000f7ec8                irq_46_handler
                0x00000000000f7ec8                irq_194_handler
                0x00000000000f7ec8                irq_7_handler
                0x00000000000f7ec8                irq_225_handler
                0x00000000000f7ec8                irq_104_handler
                0x00000000000f7ec8                irq_149_handler
                0x00000000000f7ec8                irq_152_handler
                0x00000000000f7ec8                irq_41_handler
                0x00000000000f7ec8                irq_96_handler
                0x00000000000f7ec8                irq_85_handler
                0x00000000000f7ec8                usage_fault_handler
                0x00000000000f7ec8                irq_223_handler
                0x00000000000f7ec8                irq_126_handler
                0x00000000000f7ec8                irq_101_handler
                0x00000000000f7ec8                irq_146_handler
                0x00000000000f7ec8                irq_178_handler
                0x00000000000f7ec8                default_handler
                0x00000000000f7ec8                irq_26_handler
                0x00000000000f7ec8                irq_252_handler
                0x00000000000f7ec8                irq_196_handler
                0x00000000000f7ec8                irq_128_handler
                0x00000000000f7ec8                irq_192_handler
                0x00000000000f7ec8                irq_220_handler
                0x00000000000f7ec8                mpu_fault_handler
                0x00000000000f7ec8                irq_238_handler
                0x00000000000f7ec8                irq_118_handler
                0x00000000000f7ec8                irq_60_handler
                0x00000000000f7ec8                irq_84_handler
                0x00000000000f7ec8                irq_204_handler
                0x00000000000f7ec8                irq_249_handler
                0x00000000000f7ec8                irq_161_handler
                0x00000000000f7ec8                irq_164_handler
                0x00000000000f7ec8                irq_88_handler
                0x00000000000f7ec8                irq_170_handler
                0x00000000000f7ec8                irq_133_handler
                0x00000000000f7ec8                irq_176_handler
                0x00000000000f7ec8                irq_212_handler
                0x00000000000f7ec8                irq_19_handler
                0x00000000000f7ec8                irq_93_handler
                0x00000000000f7ec8                irq_74_handler
                0x00000000000f7ec8                irq_210_handler
                0x00000000000f7ec8                irq_253_handler
                0x00000000000f7ec8                irq_205_handler
                0x00000000000f7ec8                irq_66_handler
                0x00000000000f7ec8                irq_162_handler
                0x00000000000f7ec8                irq_69_handler
                0x00000000000f7ec8                irq_90_handler
                0x00000000000f7ec8                irq_105_handler
                0x00000000000f7ec8                irq_224_handler
                0x00000000000f7ec8                irq_180_handler
                0x00000000000f7ec8                irq_186_handler
                0x00000000000f7ec8                irq_65_handler
                0x00000000000f7ec8                hard_fault_handler
                0x00000000000f7ec8                irq_236_handler
                0x00000000000f7ec8                irq_63_handler
                0x00000000000f7ec8                irq_106_handler
                0x00000000000f7ec8                irq_226_handler
                0x00000000000f7ec8                irq_148_handler
                0x00000000000f7ec8                irq_76_handler
                0x00000000000f7ec8                irq_183_handler
                0x00000000000f7ec8                irq_82_handler
                0x00000000000f7ec8                irq_240_handler
                0x00000000000f7ec8                irq_184_handler
                0x00000000000f7ec8                irq_185_handler
                0x00000000000f7ec8                irq_202_handler
                0x00000000000f7ec8                irq_247_handler
                0x00000000000f7ec8                irq_72_handler
                0x00000000000f7ec8                irq_201_handler
                0x00000000000f7ec8                irq_246_handler
                0x00000000000f7ec8                irq_113_handler
                0x00000000000f7ec8                irq_68_handler
                0x00000000000f7ec8                irq_216_handler
                0x00000000000f7ec8                irq_36_handler
                0x00000000000f7ec8                irq_179_handler
                0x00000000000f7ec8                irq_124_handler
                0x00000000000f7ec8                irq_169_handler
                0x00000000000f7ec8                irq_116_handler
                0x00000000000f7ec8                irq_159_handler
                0x00000000000f7ec8                irq_129_handler
                0x00000000000f7ec8                irq_111_handler
                0x00000000000f7ec8                irq_154_handler
                0x00000000000f7ec8                irq_73_handler
                0x00000000000f7ec8                irq_114_handler
                0x00000000000f7ec8                irq_157_handler
                0x00000000000f7ec8                irq_200_handler
                0x00000000000f7ec8                irq_245_handler
                0x00000000000f7ec8                irq_191_handler
                0x00000000000f7ec8                irq_89_handler
                0x00000000000f7ec8                irq_243_handler
                0x00000000000f7ec8                irq_32_handler
                0x00000000000f7ec8                irq_102_handler
                0x00000000000f7ec8                irq_147_handler
                0x00000000000f7ec8                irq_35_handler
                0x00000000000f7ec8                irq_217_handler
                0x00000000000f7ec8                irq_13_handler
                0x00000000000f7ec8                irq_54_handler
                0x00000000000f7ec8                pendsv_handler
                0x00000000000f7ec8                irq_134_handler
                0x00000000000f7ec8                irq_177_handler
                0x00000000000f7ec8                irq_117_handler
                0x00000000000f7ec8                irq_137_handler
                0x00000000000f7ec8                irq_127_handler
                0x00000000000f7ec8                irq_182_handler
                0x00000000000f7ec8                irq_37_handler
                0x00000000000f7ec8                sys_tick_handler
                0x00000000000f7ec8                irq_91_handler
                0x00000000000f7ec8                irq_207_handler
                0x00000000000f7ec8                irq_25_handler
                0x00000000000f7ec8                irq_39_handler
                0x00000000000f7ec8                irq_219_handler
                0x00000000000f7ec8                irq_222_handler
                0x00000000000f7ec8                irq_33_handler
                0x00000000000f7ec8                irq_12_handler
                0x00000000000f7ec8                irq_57_handler
                0x00000000000f7ec8                irq_10_handler
                0x00000000000f7ec8                irq_55_handler
                0x00000000000f7ec8                irq_130_handler
                0x00000000000f7ec8                irq_173_handler
                0x00000000000f7ec8                irq_49_handler
                0x00000000000f7ec8                irq_80_handler
                0x00000000000f7ec8                irq_9_handler
                0x00000000000f7ec8                irq_29_handler
                0x00000000000f7ec8                irq_215_handler
                0x00000000000f7ec8                irq_151_handler
                0x00000000000f7ec8                irq_28_handler
                0x00000000000f7ec8                irq_11_handler
                0x00000000000f7ec8                irq_56_handler
                0x00000000000f7ec8                irq_100_handler
                0x00000000000f7ec8                irq_145_handler
                0x00000000000f7ec8                irq_52_handler
                0x00000000000f7ec8                irq_77_handler
                0x00000000000f7ec8                irq_190_handler
                0x00000000000f7ec8                irq_233_handler
                0x00000000000f7ec8                irq_251_handler
                0x00000000000f7ec8                irq_95_handler
                0x00000000000f7ec8                irq_227_handler
                0x00000000000f7ec8                irq_239_handler
                0x00000000000f7ec8                nmi_handler
                0x00000000000f7ec8                irq_172_handler
                0x00000000000f7ec8                irq_83_handler
                0x00000000000f7ec8                irq_61_handler
                0x00000000000f7ec8                irq_144_handler
                0x00000000000f7ec8                irq_189_handler
                0x00000000000f7ec8                irq_43_handler
                0x00000000000f7ec8                irq_94_handler
                0x00000000000f7ec8                irq_71_handler
                0x00000000000f7ec8                irq_209_handler
                0x00000000000f7ec8                irq_87_handler
                0x00000000000f7ec8                irq_31_handler
                0x00000000000f7ec8                irq_99_handler
                0x00000000000f7ec8                irq_120_handler
                0x00000000000f7ec8                irq_165_handler
                0x00000000000f7ec8                irq_232_handler
                0x00000000000f7ec8                irq_181_handler
                0x00000000000f7ec8                irq_250_handler
                0x00000000000f7ec8                irq_155_handler
                0x00000000000f7ec8                irq_208_handler
                0x00000000000f7ec8                irq_197_handler
                0x00000000000f7ec8                irq_214_handler
                0x00000000000f7ec8                irq_34_handler
                0x00000000000f7ec8                irq_198_handler
                0x00000000000f7ec8                irq_79_handler
                0x00000000000f7ec8                debug_handler
                0x00000000000f7ec8                irq_67_handler
                0x00000000000f7ec8                irq_163_handler
                0x00000000000f7ec8                irq_139_handler
                0x00000000000f7ec8                irq_97_handler
                0x00000000000f7ec8                irq_125_handler
                0x00000000000f7ec8                irq_150_handler
                0x00000000000f7ec8                irq_64_handler
                0x00000000000f7ec8                irq_53_handler
 .text.svc_helper_handler
                0x00000000000f7ecc       0x16 build/hx20/RO/core/cortex-m/vecttable.o
                0x00000000000f7ecc                svc_helper_handler
 *fill*         0x00000000000f7ee2        0x2 
 .text.watchdog_trace
                0x00000000000f7ee4       0x68 build/hx20/RO/core/cortex-m/watchdog.o
                0x00000000000f7ee4                watchdog_trace
 .text.command_battfake
                0x00000000000f7f4c       0x48 build/hx20/RO/driver/battery/smart.o
 .text.command_batttempfake
                0x00000000000f7f94       0x54 build/hx20/RO/driver/battery/smart.o
 .text.sb_read  0x00000000000f7fe8       0x20 build/hx20/RO/driver/battery/smart.o
                0x00000000000f7fe8                sb_read
 .text.sb_write
                0x00000000000f8008       0x20 build/hx20/RO/driver/battery/smart.o
                0x00000000000f8008                sb_write
 .text.sb_read_string
                0x00000000000f8028       0x24 build/hx20/RO/driver/battery/smart.o
                0x00000000000f8028                sb_read_string
 .text.sb_read_mfgacc
                0x00000000000f804c       0x38 build/hx20/RO/driver/battery/smart.o
                0x00000000000f804c                sb_read_mfgacc
 .text.battery_get_mode
                0x00000000000f8084        0x8 build/hx20/RO/driver/battery/smart.o
                0x00000000000f8084                battery_get_mode
 .text.battery_force_mah_mode
                0x00000000000f808c       0x22 build/hx20/RO/driver/battery/smart.o
 .text.battery_state_of_charge_abs
                0x00000000000f80ae        0x8 build/hx20/RO/driver/battery/smart.o
                0x00000000000f80ae                battery_state_of_charge_abs
 .text.battery_remaining_capacity
                0x00000000000f80b6       0x18 build/hx20/RO/driver/battery/smart.o
                0x00000000000f80b6                battery_remaining_capacity
 .text.battery_full_charge_capacity
                0x00000000000f80ce       0x18 build/hx20/RO/driver/battery/smart.o
                0x00000000000f80ce                battery_full_charge_capacity
 .text.battery_time_to_empty
                0x00000000000f80e6        0x8 build/hx20/RO/driver/battery/smart.o
                0x00000000000f80e6                battery_time_to_empty
 .text.battery_time_to_full
                0x00000000000f80ee        0x8 build/hx20/RO/driver/battery/smart.o
                0x00000000000f80ee                battery_time_to_full
 .text.battery_status
                0x00000000000f80f6        0x8 build/hx20/RO/driver/battery/smart.o
                0x00000000000f80f6                battery_status
 .text.battery_cycle_count
                0x00000000000f80fe        0x8 build/hx20/RO/driver/battery/smart.o
                0x00000000000f80fe                battery_cycle_count
 .text.battery_design_capacity
                0x00000000000f8106       0x18 build/hx20/RO/driver/battery/smart.o
                0x00000000000f8106                battery_design_capacity
 .text.battery_design_voltage
                0x00000000000f811e        0x8 build/hx20/RO/driver/battery/smart.o
                0x00000000000f811e                battery_design_voltage
 .text.battery_serial_number
                0x00000000000f8126        0x8 build/hx20/RO/driver/battery/smart.o
                0x00000000000f8126                battery_serial_number
 .text.battery_manufacture_date
                0x00000000000f812e       0x2c build/hx20/RO/driver/battery/smart.o
                0x00000000000f812e                battery_manufacture_date
 .text.get_battery_manufacturer_name
                0x00000000000f815a        0xa build/hx20/RO/driver/battery/smart.o
                0x00000000000f815a                get_battery_manufacturer_name
 .text.battery_device_name
                0x00000000000f8164        0xa build/hx20/RO/driver/battery/smart.o
                0x00000000000f8164                battery_device_name
 .text.battery_device_chemistry
                0x00000000000f816e        0xa build/hx20/RO/driver/battery/smart.o
                0x00000000000f816e                battery_device_chemistry
 .text.battery_get_avg_current
                0x00000000000f8178       0x14 build/hx20/RO/driver/battery/smart.o
                0x00000000000f8178                battery_get_avg_current
 .text.battery_get_avg_voltage
                0x00000000000f818c       0x18 build/hx20/RO/driver/battery/smart.o
                0x00000000000f818c                battery_get_avg_voltage
 .text.battery_get_params
                0x00000000000f81a4      0x160 build/hx20/RO/driver/battery/smart.o
                0x00000000000f81a4                battery_get_params
 .text.isl9241_get_info
                0x00000000000f8304        0x8 build/hx20/RO/driver/charger/isl9241.o
 .text.isl9241_post_init
                0x00000000000f830c        0x4 build/hx20/RO/driver/charger/isl9241.o
 .text.isl9241_write
                0x00000000000f8310       0x1c build/hx20/RO/driver/charger/isl9241.o
 .text.isl9241_set_input_current
                0x00000000000f832c       0x2a build/hx20/RO/driver/charger/isl9241.o
 .text.isl9241_set_voltage
                0x00000000000f8356        0x8 build/hx20/RO/driver/charger/isl9241.o
 .text.isl9241_set_current
                0x00000000000f835e        0xe build/hx20/RO/driver/charger/isl9241.o
 .text.isl9241_read
                0x00000000000f836c       0x1c build/hx20/RO/driver/charger/isl9241.o
 .text.dump_reg_range
                0x00000000000f8388       0x58 build/hx20/RO/driver/charger/isl9241.o
 .text.command_isl9241_dump
                0x00000000000f83e0       0x6c build/hx20/RO/driver/charger/isl9241.o
 .text.isl9241_get_option
                0x00000000000f844c       0x2a build/hx20/RO/driver/charger/isl9241.o
 .text.isl9241_device_id
                0x00000000000f8476        0x8 build/hx20/RO/driver/charger/isl9241.o
 .text.isl9241_manufacturer_id
                0x00000000000f847e        0x8 build/hx20/RO/driver/charger/isl9241.o
 *fill*         0x00000000000f8486        0x2 
 .text.isl9241_get_vbus_voltage
                0x00000000000f8488       0x7c build/hx20/RO/driver/charger/isl9241.o
 .text.isl9241_get_voltage
                0x00000000000f8504        0x8 build/hx20/RO/driver/charger/isl9241.o
 .text.isl9241_get_status
                0x00000000000f850c       0x4a build/hx20/RO/driver/charger/isl9241.o
 *fill*         0x00000000000f8556        0x2 
 .text.isl9241_update
                0x00000000000f8558       0x20 build/hx20/RO/driver/charger/isl9241.o
 .text.isl9241_discharge_on_ac
                0x00000000000f8578       0x34 build/hx20/RO/driver/charger/isl9241.o
 .text.isl9241_set_mode
                0x00000000000f85ac       0x44 build/hx20/RO/driver/charger/isl9241.o
 .text.isl9241_init
                0x00000000000f85f0       0x9c build/hx20/RO/driver/charger/isl9241.o
 .text.isl9241_set_option
                0x00000000000f868c       0x20 build/hx20/RO/driver/charger/isl9241.o
 .text.isl9241_get_input_current
                0x00000000000f86ac       0x1c build/hx20/RO/driver/charger/isl9241.o
 .text.isl9241_get_current
                0x00000000000f86c8       0x1c build/hx20/RO/driver/charger/isl9241.o
 .text.isl9241_set_ac_prochot
                0x00000000000f86e4       0x2c build/hx20/RO/driver/charger/isl9241.o
                0x00000000000f86e4                isl9241_set_ac_prochot
 .text.f75303_set_fake_temp
                0x00000000000f8710       0x7c build/hx20/RO/driver/temp_sensor/f75303.o
 .text.get_temp.isra.0
                0x00000000000f878c       0x24 build/hx20/RO/driver/temp_sensor/f75303.o
 .text.f75303_sensor_poll
                0x00000000000f87b0       0x38 build/hx20/RO/driver/temp_sensor/f75303.o
 .text.f75303_set_enabled
                0x00000000000f87e8        0xc build/hx20/RO/driver/temp_sensor/f75303.o
                0x00000000000f87e8                f75303_set_enabled
 .text.f75303_get_val
                0x00000000000f87f4       0x34 build/hx20/RO/driver/temp_sensor/f75303.o
                0x00000000000f87f4                f75303_get_val
 .text.reset_power_signal_interrupt_count
                0x00000000000f8828       0x1c build/hx20/RO/power/common.o
 .text.host_command_reboot_ap_on_g3
                0x00000000000f8844       0x18 build/hx20/RO/power/common.o
 .text.hc_smart_discharge
                0x00000000000f885c       0x9c build/hx20/RO/power/common.o
 .text.command_powerinfo
                0x00000000000f88f8       0x30 build/hx20/RO/power/common.o
 .text.command_powerindebug
                0x00000000000f8928       0x90 build/hx20/RO/power/common.o
 .text.command_hibernation_delay
                0x00000000000f89b8       0x90 build/hx20/RO/power/common.o
 .text.host_command_hibernation_delay
                0x00000000000f8a48       0xbc build/hx20/RO/power/common.o
 .text.task_wake.constprop.0
                0x00000000000f8b04        0xc build/hx20/RO/power/common.o
 .text.power_ac_change
                0x00000000000f8b10       0x50 build/hx20/RO/power/common.o
 .text.power_lid_change
                0x00000000000f8b60        0x4 build/hx20/RO/power/common.o
 .text.power_signal_get_level
                0x00000000000f8b64       0x1e build/hx20/RO/power/common.o
                0x00000000000f8b64                power_signal_get_level
 .text.power_signal_disable_interrupt
                0x00000000000f8b82       0x1e build/hx20/RO/power/common.o
                0x00000000000f8b82                power_signal_disable_interrupt
 .text.power_signal_enable_interrupt
                0x00000000000f8ba0       0x1e build/hx20/RO/power/common.o
                0x00000000000f8ba0                power_signal_enable_interrupt
 .text.power_signal_is_asserted
                0x00000000000f8bbe       0x18 build/hx20/RO/power/common.o
                0x00000000000f8bbe                power_signal_is_asserted
 *fill*         0x00000000000f8bd6        0x2 
 .text.power_update_signals
                0x00000000000f8bd8       0x48 build/hx20/RO/power/common.o
 .text.power_get_signals
                0x00000000000f8c20        0xc build/hx20/RO/power/common.o
                0x00000000000f8c20                power_get_signals
 .text.power_wait_mask_signals_timeout
                0x00000000000f8c2c       0x34 build/hx20/RO/power/common.o
                0x00000000000f8c2c                power_wait_mask_signals_timeout
 .text.power_wait_signals_timeout
                0x00000000000f8c60        0x8 build/hx20/RO/power/common.o
                0x00000000000f8c60                power_wait_signals_timeout
 .text.power_wait_signals
                0x00000000000f8c68       0x30 build/hx20/RO/power/common.o
                0x00000000000f8c68                power_wait_signals
 .text.power_set_state
                0x00000000000f8c98       0x34 build/hx20/RO/power/common.o
                0x00000000000f8c98                power_set_state
 .text.power_common_init
                0x00000000000f8ccc       0x3c build/hx20/RO/power/common.o
 .text.power_get_state
                0x00000000000f8d08        0xc build/hx20/RO/power/common.o
                0x00000000000f8d08                power_get_state
 .text.power_update_wake_mask
                0x00000000000f8d14       0x50 build/hx20/RO/power/common.o
                0x00000000000f8d14                power_update_wake_mask
 .text.power_update_wake_mask_deferred
                0x00000000000f8d64       0x18 build/hx20/RO/power/common.o
 .text.board_system_is_idle
                0x00000000000f8d7c       0x68 build/hx20/RO/power/common.o
                0x00000000000f8d7c                board_system_is_idle
 .text.chipset_in_state
                0x00000000000f8de4       0x28 build/hx20/RO/power/common.o
                0x00000000000f8de4                chipset_in_state
 .text.chipset_in_or_transitioning_to_state
                0x00000000000f8e0c       0x44 build/hx20/RO/power/common.o
                0x00000000000f8e0c                chipset_in_or_transitioning_to_state
 .text.chipset_exit_hard_off
                0x00000000000f8e50       0x1c build/hx20/RO/power/common.o
                0x00000000000f8e50                chipset_exit_hard_off
 .text.chipset_task
                0x00000000000f8e6c      0x158 build/hx20/RO/power/common.o
                0x00000000000f8e6c                chipset_task
 .text.power_signal_interrupt
                0x00000000000f8fc4       0x4c build/hx20/RO/power/common.o
                0x00000000000f8fc4                power_signal_interrupt
 .text.power_chipset_handle_host_sleep_event
                0x00000000000f9010        0x2 build/hx20/RO/power/host_sleep.o
                0x00000000000f9010                power_chipset_handle_host_sleep_event
 *fill*         0x00000000000f9012        0x2 
 .text.host_command_host_sleep_event
                0x00000000000f9014       0x74 build/hx20/RO/power/host_sleep.o
                0x00000000000f9088                . = ALIGN (0x4)
                0x00000000000f9088                __flash_lpfw_start = .
 *(.lowpower_ram)
                0x00000000000f9088                . = ALIGN (0x4)
                0x00000000000f9088                __flash_lpfw_end = .
                0x00000000000f9088                __flash_lplfw_start = .
 *(.lowpower_ram2)
                0x00000000000f9088                . = ALIGN (0x4)
                0x00000000000f9088                __flash_lplfw_end = .

.glue_7         0x00000000000f9088        0x0
 .glue_7        0x00000000000f9088        0x0 linker stubs

.glue_7t        0x00000000000f9088        0x0
 .glue_7t       0x00000000000f9088        0x0 linker stubs

.vfp11_veneer   0x00000000000f9088        0x0
 .vfp11_veneer  0x00000000000f9088        0x0 linker stubs

.v4_bx          0x00000000000f9088        0x0
 .v4_bx         0x00000000000f9088        0x0 linker stubs

.iplt           0x00000000000f9088        0x0
 .iplt          0x00000000000f9088        0x0 build/hx20/RO/baseboard/fwk/baseboard_host_commands.o
                0x00000000000f9088                . = ALIGN (0x4)

.rodata         0x00000000000f9088     0x84d8
                0x00000000000f9088                __irqprio = .
 *(.rodata.irqprio)
 .rodata.irqprio
                0x00000000000f9088        0x2 build/hx20/RO/chip/mchp/adc.o
                0x00000000000f9088                prio_78
 .rodata.irqprio
                0x00000000000f908a       0x10 build/hx20/RO/chip/mchp/espi.o
                0x00000000000f908a                prio_103
                0x00000000000f908c                prio_109
                0x00000000000f908e                prio_108
                0x00000000000f9090                prio_107
                0x00000000000f9092                prio_156
                0x00000000000f9094                prio_110
                0x00000000000f9096                prio_16
                0x00000000000f9098                prio_15
 .rodata.irqprio
                0x00000000000f909a        0xc build/hx20/RO/chip/mchp/gpio.o
                0x00000000000f909a                prio_17
                0x00000000000f909c                prio_4
                0x00000000000f909e                prio_3
                0x00000000000f90a0                prio_2
                0x00000000000f90a2                prio_1
                0x00000000000f90a4                prio_0
 .rodata.irqprio
                0x00000000000f90a6        0x4 build/hx20/RO/chip/mchp/hwtimer.o
                0x00000000000f90a6                prio_141
                0x00000000000f90a8                prio_140
 .rodata.irqprio
                0x00000000000f90aa        0xa build/hx20/RO/chip/mchp/i2c.o
                0x00000000000f90aa                prio_158
                0x00000000000f90ac                prio_23
                0x00000000000f90ae                prio_22
                0x00000000000f90b0                prio_21
                0x00000000000f90b2                prio_20
 .rodata.irqprio
                0x00000000000f90b4        0x2 build/hx20/RO/chip/mchp/keyboard_raw.o
                0x00000000000f90b4                prio_135
 .rodata.irqprio
                0x00000000000f90b6        0xa build/hx20/RO/chip/mchp/lpc.o
                0x00000000000f90b6                prio_58
                0x00000000000f90b8                prio_59
                0x00000000000f90ba                prio_47
                0x00000000000f90bc                prio_45
                0x00000000000f90be                prio_42
 .rodata.irqprio
                0x00000000000f90c0        0x2 build/hx20/RO/chip/mchp/port80.o
                0x00000000000f90c0                prio_62
 .rodata.irqprio
                0x00000000000f90c2        0x2 build/hx20/RO/chip/mchp/system.o
                0x00000000000f90c2                prio_112
 .rodata.irqprio
                0x00000000000f90c4        0x2 build/hx20/RO/chip/mchp/uart.o
                0x00000000000f90c4                prio_40
 .rodata.irqprio
                0x00000000000f90c6        0x2 build/hx20/RO/chip/mchp/watchdog.o
                0x00000000000f90c6                prio_MEC1322_IRQ_TIMER16_0
                0x00000000000f90c8                __irqprio_end = .
                0x00000000000f90c8                . = ALIGN (0x4)
                0x00000000000f90c8                __cmds = .
 *(SORT_BY_NAME(.rodata.cmds*))
 .rodata.cmds.8042
                0x00000000000f90c8       0x10 build/hx20/RO/common/keyboard_8042.o
                0x00000000000f90c8                __con_cmd_8042
 .rodata.cmds.adc
                0x00000000000f90d8       0x10 build/hx20/RO/common/adc.o
                0x00000000000f90d8                __con_cmd_adc
 .rodata.cmds.apreset
                0x00000000000f90e8       0x10 build/hx20/RO/common/chipset.o
                0x00000000000f90e8                __con_cmd_apreset
 .rodata.cmds.apshutdown
                0x00000000000f90f8       0x10 build/hx20/RO/common/chipset.o
                0x00000000000f90f8                __con_cmd_apshutdown
 .rodata.cmds.apthrottle
                0x00000000000f9108       0x10 build/hx20/RO/common/throttle_ap.o
                0x00000000000f9108                __con_cmd_apthrottle
 .rodata.cmds.battery
                0x00000000000f9118       0x10 build/hx20/RO/common/battery.o
                0x00000000000f9118                __con_cmd_battery
 .rodata.cmds.battfake
                0x00000000000f9128       0x10 build/hx20/RO/driver/battery/smart.o
                0x00000000000f9128                __con_cmd_battfake
 .rodata.cmds.batttempfake
                0x00000000000f9138       0x10 build/hx20/RO/driver/battery/smart.o
                0x00000000000f9138                __con_cmd_batttempfake
 .rodata.cmds.bbram
                0x00000000000f9148       0x10 build/hx20/RO/board/hx20/board.o
                0x00000000000f9148                __con_cmd_bbram
 .rodata.cmds.chan
                0x00000000000f9158       0x10 build/hx20/RO/common/console_output.o
                0x00000000000f9158                __con_cmd_chan
 .rodata.cmds.charger
                0x00000000000f9168       0x10 build/hx20/RO/common/charger.o
                0x00000000000f9168                __con_cmd_charger
 .rodata.cmds.charger_dump
                0x00000000000f9178       0x10 build/hx20/RO/driver/charger/isl9241.o
                0x00000000000f9178                __con_cmd_charger_dump
 .rodata.cmds.chgoverride
                0x00000000000f9188       0x10 build/hx20/RO/common/charge_manager.o
                0x00000000000f9188                __con_cmd_chgoverride
 .rodata.cmds.chgstate
                0x00000000000f9198       0x10 build/hx20/RO/common/charge_state_v2.o
                0x00000000000f9198                __con_cmd_chgstate
 .rodata.cmds.chgsup
                0x00000000000f91a8       0x10 build/hx20/RO/common/charge_manager.o
                0x00000000000f91a8                __con_cmd_chgsup
 .rodata.cmds.codeset
                0x00000000000f91b8       0x10 build/hx20/RO/common/keyboard_8042.o
                0x00000000000f91b8                __con_cmd_codeset
 .rodata.cmds.cpupower
                0x00000000000f91c8       0x10 build/hx20/RO/board/hx20/cpu_power.o
                0x00000000000f91c8                __con_cmd_cpupower
 .rodata.cmds.crash
                0x00000000000f91d8       0x10 build/hx20/RO/common/panic_output.o
                0x00000000000f91d8                __con_cmd_crash
 .rodata.cmds.ctrlram
                0x00000000000f91e8       0x10 build/hx20/RO/common/keyboard_8042.o
                0x00000000000f91e8                __con_cmd_ctrlram
 .rodata.cmds.cutoff
                0x00000000000f91f8       0x10 build/hx20/RO/common/battery.o
                0x00000000000f91f8                __con_cmd_cutoff
 .rodata.cmds.cypdbb
                0x00000000000f9208       0x10 build/hx20/RO/board/hx20/cypress5525.o
                0x00000000000f9208                __con_cmd_cypdbb
 .rodata.cmds.cypdctl
                0x00000000000f9218       0x10 build/hx20/RO/board/hx20/cypress5525.o
                0x00000000000f9218                __con_cmd_cypdctl
 .rodata.cmds.cypdmsg
                0x00000000000f9228       0x10 build/hx20/RO/board/hx20/cypress5525.o
                0x00000000000f9228                __con_cmd_cypdmsg
 .rodata.cmds.cypdstatus
                0x00000000000f9238       0x10 build/hx20/RO/board/hx20/cypress5525.o
                0x00000000000f9238                __con_cmd_cypdstatus
 .rodata.cmds.dptftemp
                0x00000000000f9248       0x10 build/hx20/RO/common/dptf.o
                0x00000000000f9248                __con_cmd_dptftemp
 .rodata.cmds.ecoff
                0x00000000000f9258       0x10 build/hx20/RO/board/hx20/board.o
                0x00000000000f9258                __con_cmd_ecoff
 .rodata.cmds.emumouse
                0x00000000000f9268       0x10 build/hx20/RO/baseboard/fwk/ps2mouse.o
                0x00000000000f9268                __con_cmd_emumouse
 .rodata.cmds.f75303
                0x00000000000f9278       0x10 build/hx20/RO/driver/temp_sensor/f75303.o
                0x00000000000f9278                __con_cmd_f75303
 .rodata.cmds.fanauto
                0x00000000000f9288       0x10 build/hx20/RO/common/fan.o
                0x00000000000f9288                __con_cmd_fanauto
 .rodata.cmds.fanduty
                0x00000000000f9298       0x10 build/hx20/RO/common/fan.o
                0x00000000000f9298                __con_cmd_fanduty
 .rodata.cmds.faninfo
                0x00000000000f92a8       0x10 build/hx20/RO/common/fan.o
                0x00000000000f92a8                __con_cmd_faninfo
 .rodata.cmds.fanset
                0x00000000000f92b8       0x10 build/hx20/RO/common/fan.o
                0x00000000000f92b8                __con_cmd_fanset
 .rodata.cmds.feat
                0x00000000000f92c8       0x10 build/hx20/RO/common/ec_features.o
                0x00000000000f92c8                __con_cmd_feat
 .rodata.cmds.flashflag
                0x00000000000f92d8       0x10 build/hx20/RO/baseboard/fwk/flash_storage.o
                0x00000000000f92d8                __con_cmd_flashflag
 .rodata.cmds.flashinfo
                0x00000000000f92e8       0x10 build/hx20/RO/common/flash.o
                0x00000000000f92e8                __con_cmd_flashinfo
 .rodata.cmds.flashwp
                0x00000000000f92f8       0x10 build/hx20/RO/common/flash.o
                0x00000000000f92f8                __con_cmd_flashwp
 .rodata.cmds.gettime
                0x00000000000f9308       0x10 build/hx20/RO/common/timer.o
                0x00000000000f9308                __con_cmd_gettime
 .rodata.cmds.gpioget
                0x00000000000f9318       0x10 build/hx20/RO/common/gpio_commands.o
                0x00000000000f9318                __con_cmd_gpioget
 .rodata.cmds.gpioset
                0x00000000000f9328       0x10 build/hx20/RO/common/gpio_commands.o
                0x00000000000f9328                __con_cmd_gpioset
 .rodata.cmds.hcdebug
                0x00000000000f9338       0x10 build/hx20/RO/common/host_command.o
                0x00000000000f9338                __con_cmd_hcdebug
 .rodata.cmds.help
                0x00000000000f9348       0x10 build/hx20/RO/common/console.o
                0x00000000000f9348                __con_cmd_help
 .rodata.cmds.hibdelay
                0x00000000000f9358       0x10 build/hx20/RO/power/common.o
                0x00000000000f9358                __con_cmd_hibdelay
 .rodata.cmds.hibernate
                0x00000000000f9368       0x10 build/hx20/RO/common/system.o
                0x00000000000f9368                __con_cmd_hibernate
 .rodata.cmds.history
                0x00000000000f9378       0x10 build/hx20/RO/common/console.o
                0x00000000000f9378                __con_cmd_history
 .rodata.cmds.hostevent
                0x00000000000f9388       0x10 build/hx20/RO/common/host_event_commands.o
                0x00000000000f9388                __con_cmd_hostevent
 .rodata.cmds.i2cscan
                0x00000000000f9398       0x10 build/hx20/RO/common/i2c_master.o
                0x00000000000f9398                __con_cmd_i2cscan
 .rodata.cmds.i2cxfer
                0x00000000000f93a8       0x10 build/hx20/RO/common/i2c_master.o
                0x00000000000f93a8                __con_cmd_i2cxfer
 .rodata.cmds.kbd
                0x00000000000f93b8       0x10 build/hx20/RO/common/keyboard_8042.o
                0x00000000000f93b8                __con_cmd_kbd
 .rodata.cmds.kblight
                0x00000000000f93c8       0x10 build/hx20/RO/common/keyboard_backlight.o
                0x00000000000f93c8                __con_cmd_kblight
 .rodata.cmds.kblog
                0x00000000000f93d8       0x10 build/hx20/RO/common/keyboard_8042.o
                0x00000000000f93d8                __con_cmd_kblog
 .rodata.cmds.kbpress
                0x00000000000f93e8       0x10 build/hx20/RO/common/keyboard_scan.o
                0x00000000000f93e8                __con_cmd_kbpress
 .rodata.cmds.ksstate
                0x00000000000f93f8       0x10 build/hx20/RO/common/keyboard_scan.o
                0x00000000000f93f8                __con_cmd_ksstate
 .rodata.cmds.ledtest
                0x00000000000f9408       0x10 build/hx20/RO/common/led_pwm.o
                0x00000000000f9408                __con_cmd_ledtest
 .rodata.cmds.lidclose
                0x00000000000f9418       0x10 build/hx20/RO/common/lid_switch.o
                0x00000000000f9418                __con_cmd_lidclose
 .rodata.cmds.lidopen
                0x00000000000f9428       0x10 build/hx20/RO/common/lid_switch.o
                0x00000000000f9428                __con_cmd_lidopen
 .rodata.cmds.lidstate
                0x00000000000f9438       0x10 build/hx20/RO/common/lid_switch.o
                0x00000000000f9438                __con_cmd_lidstate
 .rodata.cmds.lpcinit
                0x00000000000f9448       0x10 build/hx20/RO/chip/mchp/lpc.o
                0x00000000000f9448                __con_cmd_lpcinit
 .rodata.cmds.md
                0x00000000000f9458       0x10 build/hx20/RO/common/memory_commands.o
                0x00000000000f9458                __con_cmd_md
 .rodata.cmds.mmapinfo
                0x00000000000f9468       0x10 build/hx20/RO/common/switch.o
                0x00000000000f9468                __con_cmd_mmapinfo
 .rodata.cmds.panicinfo
                0x00000000000f9478       0x10 build/hx20/RO/common/panic_output.o
                0x00000000000f9478                __con_cmd_panicinfo
 .rodata.cmds.peci
                0x00000000000f9488       0x10 build/hx20/RO/common/peci.o
                0x00000000000f9488                __con_cmd_peci
 .rodata.cmds.pecitemp
                0x00000000000f9498       0x10 build/hx20/RO/common/peci.o
                0x00000000000f9498                __con_cmd_pecitemp
 .rodata.cmds.port80
                0x00000000000f94a8       0x10 build/hx20/RO/common/port80.o
                0x00000000000f94a8                __con_cmd_port80
 .rodata.cmds.powerbtn
                0x00000000000f94b8       0x10 build/hx20/RO/common/power_button.o
                0x00000000000f94b8                __con_cmd_powerbtn
 .rodata.cmds.powerindebug
                0x00000000000f94c8       0x10 build/hx20/RO/power/common.o
                0x00000000000f94c8                __con_cmd_powerindebug
 .rodata.cmds.powerinfo
                0x00000000000f94d8       0x10 build/hx20/RO/power/common.o
                0x00000000000f94d8                __con_cmd_powerinfo
 .rodata.cmds.pwmduty
                0x00000000000f94e8       0x10 build/hx20/RO/common/pwm.o
                0x00000000000f94e8                __con_cmd_pwmduty
 .rodata.cmds.pwr_avg
                0x00000000000f94f8       0x10 build/hx20/RO/common/charge_state_v2.o
                0x00000000000f94f8                __con_cmd_pwr_avg
 .rodata.cmds.reboot
                0x00000000000f9508       0x10 build/hx20/RO/common/system.o
                0x00000000000f9508                __con_cmd_reboot
 .rodata.cmds.rw
                0x00000000000f9518       0x10 build/hx20/RO/common/memory_commands.o
                0x00000000000f9518                __con_cmd_rw
 .rodata.cmds.shmem
                0x00000000000f9528       0x10 build/hx20/RO/common/shared_mem.o
                0x00000000000f9528                __con_cmd_shmem
 .rodata.cmds.spi_flash_prot
                0x00000000000f9538       0x10 build/hx20/RO/common/spi_flash.o
                0x00000000000f9538                __con_cmd_spi_flash_prot
 .rodata.cmds.spi_flash_rsr
                0x00000000000f9548       0x10 build/hx20/RO/common/spi_flash.o
                0x00000000000f9548                __con_cmd_spi_flash_rsr
 .rodata.cmds.spi_flash_wsr
                0x00000000000f9558       0x10 build/hx20/RO/common/spi_flash.o
                0x00000000000f9558                __con_cmd_spi_flash_wsr
 .rodata.cmds.spi_flasherase
                0x00000000000f9568       0x10 build/hx20/RO/common/spi_flash.o
                0x00000000000f9568                __con_cmd_spi_flasherase
 .rodata.cmds.spi_flashinfo
                0x00000000000f9578       0x10 build/hx20/RO/common/spi_flash.o
                0x00000000000f9578                __con_cmd_spi_flashinfo
 .rodata.cmds.spi_flashread
                0x00000000000f9588       0x10 build/hx20/RO/common/spi_flash.o
                0x00000000000f9588                __con_cmd_spi_flashread
 .rodata.cmds.spi_flashwrite
                0x00000000000f9598       0x10 build/hx20/RO/common/spi_flash.o
                0x00000000000f9598                __con_cmd_spi_flashwrite
 .rodata.cmds.spimux
                0x00000000000f95a8       0x10 build/hx20/RO/board/hx20/board.o
                0x00000000000f95a8                __con_cmd_spimux
 .rodata.cmds.spixfer
                0x00000000000f95b8       0x10 build/hx20/RO/common/spi_commands.o
                0x00000000000f95b8                __con_cmd_spixfer
 .rodata.cmds.sysinfo
                0x00000000000f95c8       0x10 build/hx20/RO/common/system.o
                0x00000000000f95c8                __con_cmd_sysinfo
 .rodata.cmds.sysjump
                0x00000000000f95d8       0x10 build/hx20/RO/common/system.o
                0x00000000000f95d8                __con_cmd_sysjump
 .rodata.cmds.syslock
                0x00000000000f95e8       0x10 build/hx20/RO/common/system.o
                0x00000000000f95e8                __con_cmd_syslock
 .rodata.cmds.taskinfo
                0x00000000000f95f8       0x10 build/hx20/RO/core/cortex-m/task.o
                0x00000000000f95f8                __con_cmd_taskinfo
 .rodata.cmds.temps
                0x00000000000f9608       0x10 build/hx20/RO/common/temp_sensor.o
                0x00000000000f9608                __con_cmd_temps
 .rodata.cmds.thermalget
                0x00000000000f9618       0x10 build/hx20/RO/common/thermal.o
                0x00000000000f9618                __con_cmd_thermalget
 .rodata.cmds.thermalset
                0x00000000000f9628       0x10 build/hx20/RO/common/thermal.o
                0x00000000000f9628                __con_cmd_thermalset
 .rodata.cmds.typematic
                0x00000000000f9638       0x10 build/hx20/RO/common/keyboard_8042.o
                0x00000000000f9638                __con_cmd_typematic
 .rodata.cmds.version
                0x00000000000f9648       0x10 build/hx20/RO/common/system.o
                0x00000000000f9648                __con_cmd_version
 .rodata.cmds.waitms
                0x00000000000f9658       0x10 build/hx20/RO/common/timer.o
                0x00000000000f9658                __con_cmd_waitms
                0x00000000000f9668                __cmds_end = .
                0x00000000000f9668                . = ALIGN (0x4)
                0x00000000000f9668                __extension_cmds = .
 *(.rodata.extensioncmds)
                0x00000000000f9668                __extension_cmds_end = .
                0x00000000000f9668                . = ALIGN (0x4)
                0x00000000000f9668                __hcmds = .
 *(SORT_BY_NAME(.rodata.hcmds*))
 .rodata.hcmds.__host_cmd_0x00000x0000
                0x00000000000f9668        0xc build/hx20/RO/common/host_command.o
                0x00000000000f9668                __host_cmd_0x00000x0000
 .rodata.hcmds.__host_cmd_0x00000x0001
                0x00000000000f9674        0xc build/hx20/RO/common/host_command.o
                0x00000000000f9674                __host_cmd_0x00000x0001
 .rodata.hcmds.__host_cmd_0x00000x0002
                0x00000000000f9680        0xc build/hx20/RO/common/system.o
                0x00000000000f9680                __host_cmd_0x00000x0002
 .rodata.hcmds.__host_cmd_0x00000x0003
                0x00000000000f968c        0xc build/hx20/RO/common/host_command.o
                0x00000000000f968c                __host_cmd_0x00000x0003
 .rodata.hcmds.__host_cmd_0x00000x0004
                0x00000000000f9698        0xc build/hx20/RO/common/system.o
                0x00000000000f9698                __host_cmd_0x00000x0004
 .rodata.hcmds.__host_cmd_0x00000x0005
                0x00000000000f96a4        0xc build/hx20/RO/common/system.o
                0x00000000000f96a4                __host_cmd_0x00000x0005
 .rodata.hcmds.__host_cmd_0x00000x0006
                0x00000000000f96b0        0xc build/hx20/RO/common/system.o
                0x00000000000f96b0                __host_cmd_0x00000x0006
 .rodata.hcmds.__host_cmd_0x00000x0008
                0x00000000000f96bc        0xc build/hx20/RO/common/host_command.o
                0x00000000000f96bc                __host_cmd_0x00000x0008
 .rodata.hcmds.__host_cmd_0x00000x000A
                0x00000000000f96c8        0xc build/hx20/RO/common/host_command.o
                0x00000000000f96c8                __host_cmd_0x00000x000A
 .rodata.hcmds.__host_cmd_0x00000x000B
                0x00000000000f96d4        0xc build/hx20/RO/chip/mchp/lpc.o
                0x00000000000f96d4                __host_cmd_0x00000x000B
 .rodata.hcmds.__host_cmd_0x00000x000D
                0x00000000000f96e0        0xc build/hx20/RO/common/host_command.o
                0x00000000000f96e0                __host_cmd_0x00000x000D
 .rodata.hcmds.__host_cmd_0x00000x0010
                0x00000000000f96ec        0xc build/hx20/RO/common/flash.o
                0x00000000000f96ec                __host_cmd_0x00000x0010
 .rodata.hcmds.__host_cmd_0x00000x0011
                0x00000000000f96f8        0xc build/hx20/RO/common/flash.o
                0x00000000000f96f8                __host_cmd_0x00000x0011
 .rodata.hcmds.__host_cmd_0x00000x0012
                0x00000000000f9704        0xc build/hx20/RO/common/flash.o
                0x00000000000f9704                __host_cmd_0x00000x0012
 .rodata.hcmds.__host_cmd_0x00000x0013
                0x00000000000f9710        0xc build/hx20/RO/common/flash.o
                0x00000000000f9710                __host_cmd_0x00000x0013
 .rodata.hcmds.__host_cmd_0x00000x0015
                0x00000000000f971c        0xc build/hx20/RO/common/flash.o
                0x00000000000f971c                __host_cmd_0x00000x0015
 .rodata.hcmds.__host_cmd_0x00000x0016
                0x00000000000f9728        0xc build/hx20/RO/common/flash.o
                0x00000000000f9728                __host_cmd_0x00000x0016
 .rodata.hcmds.__host_cmd_0x00000x001C
                0x00000000000f9734        0xc build/hx20/RO/common/system.o
                0x00000000000f9734                __host_cmd_0x00000x001C
 .rodata.hcmds.__host_cmd_0x00000x0020
                0x00000000000f9740        0xc build/hx20/RO/common/fan.o
                0x00000000000f9740                __host_cmd_0x00000x0020
 .rodata.hcmds.__host_cmd_0x00000x0021
                0x00000000000f974c        0xc build/hx20/RO/common/fan.o
                0x00000000000f974c                __host_cmd_0x00000x0021
 .rodata.hcmds.__host_cmd_0x00000x0022
                0x00000000000f9758        0xc build/hx20/RO/common/keyboard_backlight.o
                0x00000000000f9758                __host_cmd_0x00000x0022
 .rodata.hcmds.__host_cmd_0x00000x0023
                0x00000000000f9764        0xc build/hx20/RO/common/keyboard_backlight.o
                0x00000000000f9764                __host_cmd_0x00000x0023
 .rodata.hcmds.__host_cmd_0x00000x0024
                0x00000000000f9770        0xc build/hx20/RO/common/fan.o
                0x00000000000f9770                __host_cmd_0x00000x0024
 .rodata.hcmds.__host_cmd_0x00000x0025
                0x00000000000f977c        0xc build/hx20/RO/common/pwm.o
                0x00000000000f977c                __host_cmd_0x00000x0025
 .rodata.hcmds.__host_cmd_0x00000x0026
                0x00000000000f9788        0xc build/hx20/RO/common/pwm.o
                0x00000000000f9788                __host_cmd_0x00000x0026
 .rodata.hcmds.__host_cmd_0x00000x0029
                0x00000000000f9794        0xc build/hx20/RO/common/led_common.o
                0x00000000000f9794                __host_cmd_0x00000x0029
 .rodata.hcmds.__host_cmd_0x00000x002C
                0x00000000000f97a0        0xc build/hx20/RO/common/lid_switch.o
                0x00000000000f97a0                __host_cmd_0x00000x002C
 .rodata.hcmds.__host_cmd_0x00000x002D
                0x00000000000f97ac        0xc build/hx20/RO/board/hx20/power_button_x86.o
                0x00000000000f97ac                __host_cmd_0x00000x002D
 .rodata.hcmds.__host_cmd_0x00000x0048
                0x00000000000f97b8        0xc build/hx20/RO/common/port80.o
                0x00000000000f97b8                __host_cmd_0x00000x0048
 .rodata.hcmds.__host_cmd_0x00000x0049
                0x00000000000f97c4        0xc build/hx20/RO/common/vstore.o
                0x00000000000f97c4                __host_cmd_0x00000x0049
 .rodata.hcmds.__host_cmd_0x00000x004A
                0x00000000000f97d0        0xc build/hx20/RO/common/vstore.o
                0x00000000000f97d0                __host_cmd_0x00000x004A
 .rodata.hcmds.__host_cmd_0x00000x004B
                0x00000000000f97dc        0xc build/hx20/RO/common/vstore.o
                0x00000000000f97dc                __host_cmd_0x00000x004B
 .rodata.hcmds.__host_cmd_0x00000x0050
                0x00000000000f97e8        0xc build/hx20/RO/common/thermal.o
                0x00000000000f97e8                __host_cmd_0x00000x0050
 .rodata.hcmds.__host_cmd_0x00000x0051
                0x00000000000f97f4        0xc build/hx20/RO/common/thermal.o
                0x00000000000f97f4                __host_cmd_0x00000x0051
 .rodata.hcmds.__host_cmd_0x00000x0052
                0x00000000000f9800        0xc build/hx20/RO/common/fan.o
                0x00000000000f9800                __host_cmd_0x00000x0052
 .rodata.hcmds.__host_cmd_0x00000x0062
                0x00000000000f980c        0xc build/hx20/RO/common/keyboard_scan.o
                0x00000000000f980c                __host_cmd_0x00000x0062
 .rodata.hcmds.__host_cmd_0x00000x0070
                0x00000000000f9818        0xc build/hx20/RO/common/temp_sensor.o
                0x00000000000f9818                __host_cmd_0x00000x0070
 .rodata.hcmds.__host_cmd_0x00000x0087
                0x00000000000f9824        0xc build/hx20/RO/common/host_event_commands.o
                0x00000000000f9824                __host_cmd_0x00000x0087
 .rodata.hcmds.__host_cmd_0x00000x0088
                0x00000000000f9830        0xc build/hx20/RO/common/host_event_commands.o
                0x00000000000f9830                __host_cmd_0x00000x0088
 .rodata.hcmds.__host_cmd_0x00000x0089
                0x00000000000f983c        0xc build/hx20/RO/common/host_event_commands.o
                0x00000000000f983c                __host_cmd_0x00000x0089
 .rodata.hcmds.__host_cmd_0x00000x008A
                0x00000000000f9848        0xc build/hx20/RO/common/host_event_commands.o
                0x00000000000f9848                __host_cmd_0x00000x008A
 .rodata.hcmds.__host_cmd_0x00000x008B
                0x00000000000f9854        0xc build/hx20/RO/common/host_event_commands.o
                0x00000000000f9854                __host_cmd_0x00000x008B
 .rodata.hcmds.__host_cmd_0x00000x008C
                0x00000000000f9860        0xc build/hx20/RO/common/host_event_commands.o
                0x00000000000f9860                __host_cmd_0x00000x008C
 .rodata.hcmds.__host_cmd_0x00000x008D
                0x00000000000f986c        0xc build/hx20/RO/common/host_event_commands.o
                0x00000000000f986c                __host_cmd_0x00000x008D
 .rodata.hcmds.__host_cmd_0x00000x008E
                0x00000000000f9878        0xc build/hx20/RO/common/host_event_commands.o
                0x00000000000f9878                __host_cmd_0x00000x008E
 .rodata.hcmds.__host_cmd_0x00000x008F
                0x00000000000f9884        0xc build/hx20/RO/common/host_event_commands.o
                0x00000000000f9884                __host_cmd_0x00000x008F
 .rodata.hcmds.__host_cmd_0x00000x0092
                0x00000000000f9890        0xc build/hx20/RO/common/gpio_commands.o
                0x00000000000f9890                __host_cmd_0x00000x0092
 .rodata.hcmds.__host_cmd_0x00000x0093
                0x00000000000f989c        0xc build/hx20/RO/common/gpio_commands.o
                0x00000000000f989c                __host_cmd_0x00000x0093
 .rodata.hcmds.__host_cmd_0x00000x0096
                0x00000000000f98a8        0xc build/hx20/RO/common/charge_state_v2.o
                0x00000000000f98a8                __host_cmd_0x00000x0096
 .rodata.hcmds.__host_cmd_0x00000x0097
                0x00000000000f98b4        0xc build/hx20/RO/common/uart_buffering.o
                0x00000000000f98b4                __host_cmd_0x00000x0097
 .rodata.hcmds.__host_cmd_0x00000x0098
                0x00000000000f98c0        0xc build/hx20/RO/common/uart_buffering.o
                0x00000000000f98c0                __host_cmd_0x00000x0098
 .rodata.hcmds.__host_cmd_0x00000x0099
                0x00000000000f98cc        0xc build/hx20/RO/common/battery.o
                0x00000000000f98cc                __host_cmd_0x00000x0099
 .rodata.hcmds.__host_cmd_0x00000x009E
                0x00000000000f98d8        0xc build/hx20/RO/common/i2c_master.o
                0x00000000000f98d8                __host_cmd_0x00000x009E
 .rodata.hcmds.__host_cmd_0x00000x00A0
                0x00000000000f98e4        0xc build/hx20/RO/common/charge_state_v2.o
                0x00000000000f98e4                __host_cmd_0x00000x00A0
 .rodata.hcmds.__host_cmd_0x00000x00A1
                0x00000000000f98f0        0xc build/hx20/RO/common/charge_state_v2.o
                0x00000000000f98f0                __host_cmd_0x00000x00A1
 .rodata.hcmds.__host_cmd_0x00000x00A4
                0x00000000000f98fc        0xc build/hx20/RO/common/host_event_commands.o
                0x00000000000f98fc                __host_cmd_0x00000x00A4
 .rodata.hcmds.__host_cmd_0x00000x00A8
                0x00000000000f9908        0xc build/hx20/RO/power/common.o
                0x00000000000f9908                __host_cmd_0x00000x00A8
 .rodata.hcmds.__host_cmd_0x00000x00A9
                0x00000000000f9914        0xc build/hx20/RO/power/host_sleep.o
                0x00000000000f9914                __host_cmd_0x00000x00A9
 .rodata.hcmds.__host_cmd_0x00000x00B7
                0x00000000000f9920        0xc build/hx20/RO/common/i2c_master.o
                0x00000000000f9920                __host_cmd_0x00000x00B7
 .rodata.hcmds.__host_cmd_0x00000x00D2
                0x00000000000f992c        0xc build/hx20/RO/common/system.o
                0x00000000000f992c                __host_cmd_0x00000x00D2
 .rodata.hcmds.__host_cmd_0x00000x00D3
                0x00000000000f9938        0xc build/hx20/RO/common/panic_output.o
                0x00000000000f9938                __host_cmd_0x00000x00D3
 .rodata.hcmds.__host_cmd_0x00000x0103
                0x00000000000f9944        0xc build/hx20/RO/common/charge_manager.o
                0x00000000000f9944                __host_cmd_0x00000x0103
 .rodata.hcmds.__host_cmd_0x00000x0105
                0x00000000000f9950        0xc build/hx20/RO/common/charge_manager.o
                0x00000000000f9950                __host_cmd_0x00000x0105
 .rodata.hcmds.__host_cmd_0x00000x0114
                0x00000000000f995c        0xc build/hx20/RO/common/charge_manager.o
                0x00000000000f995c                __host_cmd_0x00000x0114
 .rodata.hcmds.__host_cmd_0x00000x0121
                0x00000000000f9968        0xc build/hx20/RO/common/uptime.o
                0x00000000000f9968                __host_cmd_0x00000x0121
 .rodata.hcmds.__host_cmd_0x00000x0123
                0x00000000000f9974        0xc build/hx20/RO/common/adc.o
                0x00000000000f9974                __host_cmd_0x00000x0123
 .rodata.hcmds.__host_cmd_0x00000x0127
                0x00000000000f9980        0xc build/hx20/RO/power/common.o
                0x00000000000f9980                __host_cmd_0x00000x0127
 .rodata.hcmds.__host_cmd_0x00000x012A
                0x00000000000f998c        0xc build/hx20/RO/common/keyboard_vivaldi.o
                0x00000000000f998c                __host_cmd_0x00000x012A
 .rodata.hcmds.__host_cmd_0x00000x012B
                0x00000000000f9998        0xc build/hx20/RO/power/common.o
                0x00000000000f9998                __host_cmd_0x00000x012B
 .rodata.hcmds.__host_cmd_0x00000x3E01
                0x00000000000f99a4        0xc build/hx20/RO/board/hx20/host_command_customization.o
                0x00000000000f99a4                __host_cmd_0x00000x3E01
 .rodata.hcmds.__host_cmd_0x00000x3E02
                0x00000000000f99b0        0xc build/hx20/RO/board/hx20/host_command_customization.o
                0x00000000000f99b0                __host_cmd_0x00000x3E02
 .rodata.hcmds.__host_cmd_0x00000x3E03
                0x00000000000f99bc        0xc build/hx20/RO/baseboard/fwk/battery.o
                0x00000000000f99bc                __host_cmd_0x00000x3E03
 .rodata.hcmds.__host_cmd_0x00000x3E04
                0x00000000000f99c8        0xc build/hx20/RO/baseboard/fwk/fan.o
                0x00000000000f99c8                __host_cmd_0x00000x3E04
 .rodata.hcmds.__host_cmd_0x00000x3E05
                0x00000000000f99d4        0xc build/hx20/RO/board/hx20/power_sequence.o
                0x00000000000f99d4                __host_cmd_0x00000x3E05
 .rodata.hcmds.__host_cmd_0x00000x3E06
                0x00000000000f99e0        0xc build/hx20/RO/board/hx20/power_sequence.o
                0x00000000000f99e0                __host_cmd_0x00000x3E06
 .rodata.hcmds.__host_cmd_0x00000x3E07
                0x00000000000f99ec        0xc build/hx20/RO/board/hx20/host_command_customization.o
                0x00000000000f99ec                __host_cmd_0x00000x3E07
 .rodata.hcmds.__host_cmd_0x00000x3E08
                0x00000000000f99f8        0xc build/hx20/RO/board/hx20/host_command_customization.o
                0x00000000000f99f8                __host_cmd_0x00000x3E08
 .rodata.hcmds.__host_cmd_0x00000x3E09
                0x00000000000f9a04        0xc build/hx20/RO/board/hx20/board.o
                0x00000000000f9a04                __host_cmd_0x00000x3E09
 .rodata.hcmds.__host_cmd_0x00000x3E0A
                0x00000000000f9a10        0xc build/hx20/RO/board/hx20/host_command_customization.o
                0x00000000000f9a10                __host_cmd_0x00000x3E0A
 .rodata.hcmds.__host_cmd_0x00000x3E0B
                0x00000000000f9a1c        0xc build/hx20/RO/board/hx20/host_command_customization.o
                0x00000000000f9a1c                __host_cmd_0x00000x3E0B
 .rodata.hcmds.__host_cmd_0x00000x3E0C
                0x00000000000f9a28        0xc build/hx20/RO/board/hx20/host_command_customization.o
                0x00000000000f9a28                __host_cmd_0x00000x3E0C
 .rodata.hcmds.__host_cmd_0x00000x3E0D
                0x00000000000f9a34        0xc build/hx20/RO/board/hx20/power_sequence.o
                0x00000000000f9a34                __host_cmd_0x00000x3E0D
 .rodata.hcmds.__host_cmd_0x00000x3E0E
                0x00000000000f9a40        0xc build/hx20/RO/board/hx20/led.o
                0x00000000000f9a40                __host_cmd_0x00000x3E0E
 .rodata.hcmds.__host_cmd_0x00000x3E0F
                0x00000000000f9a4c        0xc build/hx20/RO/board/hx20/host_command_customization.o
                0x00000000000f9a4c                __host_cmd_0x00000x3E0F
 .rodata.hcmds.__host_cmd_0x00000x3E13
                0x00000000000f9a58        0xc build/hx20/RO/board/hx20/host_command_customization.o
                0x00000000000f9a58                __host_cmd_0x00000x3E13
 .rodata.hcmds.__host_cmd_0x00000x3E14
                0x00000000000f9a64        0xc build/hx20/RO/baseboard/fwk/baseboard_host_commands.o
                0x00000000000f9a64                __host_cmd_0x00000x3E14
                0x00000000000f9a70                __hcmds_end = .
                0x00000000000f9a70                . = ALIGN (0x4)
                0x00000000000f9a70                __mkbp_evt_srcs = .
 *(.rodata.evtsrcs)
                0x00000000000f9a70                __mkbp_evt_srcs_end = .
                0x00000000000f9a70                . = ALIGN (0x4)
                0x00000000000f9a70                __hooks_init = .
 *(.rodata.HOOK_INIT)
 .rodata.HOOK_INIT
                0x00000000000f9a70       0x20 build/hx20/RO/board/hx20/board.o
                0x00000000000f9a70                __hook_HOOK_INIT_setup_fans
                0x00000000000f9a78                __hook_HOOK_INIT_charger_chips_init
                0x00000000000f9a80                __hook_HOOK_INIT_board_init
                0x00000000000f9a88                __hook_HOOK_INIT_vci_init
 .rodata.HOOK_INIT
                0x00000000000f9a90        0x8 build/hx20/RO/board/hx20/cypress5525.o
                0x00000000000f9a90                __hook_HOOK_INIT_pd_extpower_init
 .rodata.HOOK_INIT
                0x00000000000f9a98        0x8 build/hx20/RO/board/hx20/led.o
                0x00000000000f9a98                __hook_HOOK_INIT_led_configure
 .rodata.HOOK_INIT
                0x00000000000f9aa0       0x10 build/hx20/RO/board/hx20/power_button_x86.o
                0x00000000000f9aa0                __hook_HOOK_INIT_power_button_pulse_setting_restore_state
                0x00000000000f9aa8                __hook_HOOK_INIT_powerbtn_x86_init
 .rodata.HOOK_INIT
                0x00000000000f9ab0        0x8 build/hx20/RO/chip/mchp/adc.o
                0x00000000000f9ab0                __hook_HOOK_INIT_adc_init
 .rodata.HOOK_INIT
                0x00000000000f9ab8        0x8 build/hx20/RO/chip/mchp/clock.o
                0x00000000000f9ab8                __hook_HOOK_INIT_clock_turbo_disable
 .rodata.HOOK_INIT
                0x00000000000f9ac0        0x8 build/hx20/RO/chip/mchp/gpio.o
                0x00000000000f9ac0                __hook_HOOK_INIT_gpio_init
 .rodata.HOOK_INIT
                0x00000000000f9ac8        0x8 build/hx20/RO/chip/mchp/lpc.o
                0x00000000000f9ac8                __hook_HOOK_INIT_lpc_init
 .rodata.HOOK_INIT
                0x00000000000f9ad0        0x8 build/hx20/RO/chip/mchp/peci.o
                0x00000000000f9ad0                __hook_HOOK_INIT_peci_init
 .rodata.HOOK_INIT
                0x00000000000f9ad8        0x8 build/hx20/RO/chip/mchp/pwm.o
                0x00000000000f9ad8                __hook_HOOK_INIT_pwm_init
 .rodata.HOOK_INIT
                0x00000000000f9ae0        0x8 build/hx20/RO/common/charge_manager.o
                0x00000000000f9ae0                __hook_HOOK_INIT_charge_manager_init
 .rodata.HOOK_INIT
                0x00000000000f9ae8        0x8 build/hx20/RO/common/charge_state_v2.o
                0x00000000000f9ae8                __hook_HOOK_INIT_charger_init
 .rodata.HOOK_INIT
                0x00000000000f9af0        0x8 build/hx20/RO/common/dptf.o
                0x00000000000f9af0                __hook_HOOK_INIT_dptf_init
 .rodata.HOOK_INIT
                0x00000000000f9af8        0x8 build/hx20/RO/common/extpower_gpio.o
                0x00000000000f9af8                __hook_HOOK_INIT_extpower_init
 .rodata.HOOK_INIT
                0x00000000000f9b00        0x8 build/hx20/RO/common/fan.o
                0x00000000000f9b00                __hook_HOOK_INIT_pwm_fan_init
 .rodata.HOOK_INIT
                0x00000000000f9b08        0x8 build/hx20/RO/common/host_event_commands.o
                0x00000000000f9b08                __hook_HOOK_INIT_restore_lazy_wm
 .rodata.HOOK_INIT
                0x00000000000f9b10        0x8 build/hx20/RO/common/keyboard_8042.o
                0x00000000000f9b10                __hook_HOOK_INIT_keyboard_restore_state
 .rodata.HOOK_INIT
                0x00000000000f9b18        0x8 build/hx20/RO/common/keyboard_backlight.o
                0x00000000000f9b18                __hook_HOOK_INIT_keyboard_backlight_init
 .rodata.HOOK_INIT
                0x00000000000f9b20        0x8 build/hx20/RO/common/keyboard_scan.o
                0x00000000000f9b20                __hook_HOOK_INIT_keyboard_lid_change
 .rodata.HOOK_INIT
                0x00000000000f9b28        0x8 build/hx20/RO/common/keyboard_vivaldi.o
                0x00000000000f9b28                __hook_HOOK_INIT_vivaldi_init
 .rodata.HOOK_INIT
                0x00000000000f9b30        0x8 build/hx20/RO/common/led_pwm.o
                0x00000000000f9b30                __hook_HOOK_INIT_init_leds_off
 .rodata.HOOK_INIT
                0x00000000000f9b38        0x8 build/hx20/RO/common/lid_switch.o
                0x00000000000f9b38                __hook_HOOK_INIT_lid_init
 .rodata.HOOK_INIT
                0x00000000000f9b40        0x8 build/hx20/RO/common/panic_output.o
                0x00000000000f9b40                __hook_HOOK_INIT_panic_init
 .rodata.HOOK_INIT
                0x00000000000f9b48        0x8 build/hx20/RO/common/power_button.o
                0x00000000000f9b48                __hook_HOOK_INIT_power_button_init
 .rodata.HOOK_INIT
                0x00000000000f9b50        0x8 build/hx20/RO/common/pwm.o
                0x00000000000f9b50                __hook_HOOK_INIT_pwm_pin_init
 .rodata.HOOK_INIT
                0x00000000000f9b58        0x8 build/hx20/RO/common/switch.o
                0x00000000000f9b58                __hook_HOOK_INIT_switch_init
 .rodata.HOOK_INIT
                0x00000000000f9b60        0x8 build/hx20/RO/common/temp_sensor.o
                0x00000000000f9b60                __hook_HOOK_INIT_temp_sensor_init
 .rodata.HOOK_INIT
                0x00000000000f9b68        0x8 build/hx20/RO/common/vstore.o
                0x00000000000f9b68                __hook_HOOK_INIT_vstore_init
 .rodata.HOOK_INIT
                0x00000000000f9b70        0x8 build/hx20/RO/power/common.o
                0x00000000000f9b70                __hook_HOOK_INIT_power_common_init
                0x00000000000f9b78                __hooks_init_end = .
                0x00000000000f9b78                __hooks_pre_freq_change = .
 *(.rodata.HOOK_PRE_FREQ_CHANGE)
                0x00000000000f9b78                __hooks_pre_freq_change_end = .
                0x00000000000f9b78                __hooks_freq_change = .
 *(.rodata.HOOK_FREQ_CHANGE)
 .rodata.HOOK_FREQ_CHANGE
                0x00000000000f9b78        0x8 build/hx20/RO/common/keyboard_scan.o
                0x00000000000f9b78                __hook_HOOK_FREQ_CHANGE_keyboard_freq_change
                0x00000000000f9b80                __hooks_freq_change_end = .
                0x00000000000f9b80                __hooks_sysjump = .
 *(.rodata.HOOK_SYSJUMP)
 .rodata.HOOK_SYSJUMP
                0x00000000000f9b80        0x8 build/hx20/RO/board/hx20/power_button_x86.o
                0x00000000000f9b80                __hook_HOOK_SYSJUMP_power_button_pulse_setting_preserve_state
 .rodata.HOOK_SYSJUMP
                0x00000000000f9b88        0x8 build/hx20/RO/chip/mchp/flash.o
                0x00000000000f9b88                __hook_HOOK_SYSJUMP_flash_preserve_state
 .rodata.HOOK_SYSJUMP
                0x00000000000f9b90        0x8 build/hx20/RO/common/fan.o
                0x00000000000f9b90                __hook_HOOK_SYSJUMP_pwm_fan_preserve_state
 .rodata.HOOK_SYSJUMP
                0x00000000000f9b98       0x10 build/hx20/RO/common/host_event_commands.o
                0x00000000000f9b98                __hook_HOOK_SYSJUMP_preserve_lazy_wm
                0x00000000000f9ba0                __hook_HOOK_SYSJUMP_lpc_sysjump_save_mask
 .rodata.HOOK_SYSJUMP
                0x00000000000f9ba8        0x8 build/hx20/RO/common/keyboard_8042.o
                0x00000000000f9ba8                __hook_HOOK_SYSJUMP_keyboard_preserve_state
 .rodata.HOOK_SYSJUMP
                0x00000000000f9bb0        0x8 build/hx20/RO/common/timer.o
                0x00000000000f9bb0                __hook_HOOK_SYSJUMP_timer_sysjump
 .rodata.HOOK_SYSJUMP
                0x00000000000f9bb8        0x8 build/hx20/RO/common/vstore.o
                0x00000000000f9bb8                __hook_HOOK_SYSJUMP_vstore_preserve_state
                0x00000000000f9bc0                __hooks_sysjump_end = .
                0x00000000000f9bc0                __hooks_chipset_pre_init = .
 *(.rodata.HOOK_CHIPSET_PRE_INIT)
                0x00000000000f9bc0                __hooks_chipset_pre_init_end = .
                0x00000000000f9bc0                __hooks_chipset_startup = .
 *(.rodata.HOOK_CHIPSET_STARTUP)
 .rodata.HOOK_CHIPSET_STARTUP
                0x00000000000f9bc0        0x8 build/hx20/RO/board/hx20/board.o
                0x00000000000f9bc0                __hook_HOOK_CHIPSET_STARTUP_board_chipset_startup
 .rodata.HOOK_CHIPSET_STARTUP
                0x00000000000f9bc8        0x8 build/hx20/RO/board/hx20/i2c_hid_mediakeys.o
                0x00000000000f9bc8                __hook_HOOK_CHIPSET_STARTUP_hid_startup
 .rodata.HOOK_CHIPSET_STARTUP
                0x00000000000f9bd0        0x8 build/hx20/RO/board/hx20/keyboard_customization.o
                0x00000000000f9bd0                __hook_HOOK_CHIPSET_STARTUP_fnkey_startup
 .rodata.HOOK_CHIPSET_STARTUP
                0x00000000000f9bd8        0x8 build/hx20/RO/board/hx20/power_button_x86.o
                0x00000000000f9bd8                __hook_HOOK_CHIPSET_STARTUP_power_button_pulse_setting_reset
 .rodata.HOOK_CHIPSET_STARTUP
                0x00000000000f9be0        0x8 build/hx20/RO/chip/mchp/espi.o
                0x00000000000f9be0                __hook_HOOK_CHIPSET_STARTUP_espi_host_init
                0x00000000000f9be8                __hooks_chipset_startup_end = .
                0x00000000000f9be8                __hooks_chipset_resume = .
 *(.rodata.HOOK_CHIPSET_RESUME)
 .rodata.HOOK_CHIPSET_RESUME
                0x00000000000f9be8        0x8 build/hx20/RO/baseboard/fwk/diagnostics.o
                0x00000000000f9be8                __hook_HOOK_CHIPSET_RESUME_diagnostics_check_devices
 .rodata.HOOK_CHIPSET_RESUME
                0x00000000000f9bf0        0x8 build/hx20/RO/baseboard/fwk/ps2mouse.o
                0x00000000000f9bf0                __hook_HOOK_CHIPSET_RESUME_ps2mouse_powerstate_change
 .rodata.HOOK_CHIPSET_RESUME
                0x00000000000f9bf8        0x8 build/hx20/RO/board/hx20/board.o
                0x00000000000f9bf8                __hook_HOOK_CHIPSET_RESUME_board_chipset_resume
 .rodata.HOOK_CHIPSET_RESUME
                0x00000000000f9c00        0x8 build/hx20/RO/board/hx20/keyboard_customization.o
                0x00000000000f9c00                __hook_HOOK_CHIPSET_RESUME_caps_resume
 .rodata.HOOK_CHIPSET_RESUME
                0x00000000000f9c08        0x8 build/hx20/RO/board/hx20/power_button_x86.o
                0x00000000000f9c08                __hook_HOOK_CHIPSET_RESUME_power_button_pulse_setting_reset
 .rodata.HOOK_CHIPSET_RESUME
                0x00000000000f9c10        0x8 build/hx20/RO/common/charge_state_v2.o
                0x00000000000f9c10                __hook_HOOK_CHIPSET_RESUME_charge_wakeup
 .rodata.HOOK_CHIPSET_RESUME
                0x00000000000f9c18        0x8 build/hx20/RO/common/fan.o
                0x00000000000f9c18                __hook_HOOK_CHIPSET_RESUME_pwm_fan_start
 .rodata.HOOK_CHIPSET_RESUME
                0x00000000000f9c20        0x8 build/hx20/RO/common/host_event_commands.o
                0x00000000000f9c20                __hook_HOOK_CHIPSET_RESUME_clear_non_sci_events
 .rodata.HOOK_CHIPSET_RESUME
                0x00000000000f9c28        0x8 build/hx20/RO/common/keyboard_backlight.o
                0x00000000000f9c28                __hook_HOOK_CHIPSET_RESUME_kblight_resume
 .rodata.HOOK_CHIPSET_RESUME
                0x00000000000f9c30        0x8 build/hx20/RO/common/port80.o
                0x00000000000f9c30                __hook_HOOK_CHIPSET_RESUME_port80_log_resume
                0x00000000000f9c38                __hooks_chipset_resume_end = .
                0x00000000000f9c38                __hooks_chipset_suspend = .
 *(.rodata.HOOK_CHIPSET_SUSPEND)
 .rodata.HOOK_CHIPSET_SUSPEND
                0x00000000000f9c38        0x8 build/hx20/RO/baseboard/fwk/ps2mouse.o
                0x00000000000f9c38                __hook_HOOK_CHIPSET_SUSPEND_ps2mouse_powerstate_change
 .rodata.HOOK_CHIPSET_SUSPEND
                0x00000000000f9c40        0x8 build/hx20/RO/board/hx20/board.o
                0x00000000000f9c40                __hook_HOOK_CHIPSET_SUSPEND_board_chipset_suspend
 .rodata.HOOK_CHIPSET_SUSPEND
                0x00000000000f9c48        0x8 build/hx20/RO/board/hx20/keyboard_customization.o
                0x00000000000f9c48                __hook_HOOK_CHIPSET_SUSPEND_caps_suspend
 .rodata.HOOK_CHIPSET_SUSPEND
                0x00000000000f9c50        0x8 build/hx20/RO/board/hx20/power_button_x86.o
                0x00000000000f9c50                __hook_HOOK_CHIPSET_SUSPEND_power_button_pulse_setting_reset
 .rodata.HOOK_CHIPSET_SUSPEND
                0x00000000000f9c58        0x8 build/hx20/RO/common/charge_state_v2.o
                0x00000000000f9c58                __hook_HOOK_CHIPSET_SUSPEND_reset_current_limit
 .rodata.HOOK_CHIPSET_SUSPEND
                0x00000000000f9c60        0x8 build/hx20/RO/common/charger.o
                0x00000000000f9c60                __hook_HOOK_CHIPSET_SUSPEND_dptf_disable_hook
 .rodata.HOOK_CHIPSET_SUSPEND
                0x00000000000f9c68        0x8 build/hx20/RO/common/fan.o
                0x00000000000f9c68                __hook_HOOK_CHIPSET_SUSPEND_pwm_fan_stop
 .rodata.HOOK_CHIPSET_SUSPEND
                0x00000000000f9c70        0x8 build/hx20/RO/common/host_event_commands.o
                0x00000000000f9c70                __hook_HOOK_CHIPSET_SUSPEND_clear_events_copy_b
 .rodata.HOOK_CHIPSET_SUSPEND
                0x00000000000f9c78        0x8 build/hx20/RO/common/keyboard_backlight.o
                0x00000000000f9c78                __hook_HOOK_CHIPSET_SUSPEND_kblight_suspend
                0x00000000000f9c80                __hooks_chipset_suspend_end = .
                0x00000000000f9c80                __hooks_chipset_shutdown = .
 *(.rodata.HOOK_CHIPSET_SHUTDOWN)
 .rodata.HOOK_CHIPSET_SHUTDOWN
                0x00000000000f9c80        0x8 build/hx20/RO/board/hx20/board.o
                0x00000000000f9c80                __hook_HOOK_CHIPSET_SHUTDOWN_board_chipset_shutdown
 .rodata.HOOK_CHIPSET_SHUTDOWN
                0x00000000000f9c88        0x8 build/hx20/RO/board/hx20/keyboard_customization.o
                0x00000000000f9c88                __hook_HOOK_CHIPSET_SHUTDOWN_fnkey_shutdown
 .rodata.HOOK_CHIPSET_SHUTDOWN
                0x00000000000f9c90        0x8 build/hx20/RO/board/hx20/power_button_x86.o
                0x00000000000f9c90                __hook_HOOK_CHIPSET_SHUTDOWN_power_button_pulse_setting_reset
 .rodata.HOOK_CHIPSET_SHUTDOWN
                0x00000000000f9c98        0x8 build/hx20/RO/common/battery.o
                0x00000000000f9c98                __hook_HOOK_CHIPSET_SHUTDOWN_check_pending_cutoff
 .rodata.HOOK_CHIPSET_SHUTDOWN
                0x00000000000f9ca0        0x8 build/hx20/RO/common/charge_state_v2.o
                0x00000000000f9ca0                __hook_HOOK_CHIPSET_SHUTDOWN_reset_current_limit
 .rodata.HOOK_CHIPSET_SHUTDOWN
                0x00000000000f9ca8        0x8 build/hx20/RO/common/charger.o
                0x00000000000f9ca8                __hook_HOOK_CHIPSET_SHUTDOWN_dptf_disable_hook
 .rodata.HOOK_CHIPSET_SHUTDOWN
                0x00000000000f9cb0        0x8 build/hx20/RO/common/fan.o
                0x00000000000f9cb0                __hook_HOOK_CHIPSET_SHUTDOWN_pwm_fan_stop
                0x00000000000f9cb8                __hooks_chipset_shutdown_end = .
                0x00000000000f9cb8                __hooks_chipset_shutdown_complete = .
 *(.rodata.HOOK_CHIPSET_SHUTDOWN_COMPLETE)
 .rodata.HOOK_CHIPSET_SHUTDOWN_COMPLETE
                0x00000000000f9cb8        0x8 build/hx20/RO/common/system.o
                0x00000000000f9cb8                __hook_HOOK_CHIPSET_SHUTDOWN_COMPLETE_system_common_shutdown
                0x00000000000f9cc0                __hooks_chipset_shutdown_complete_end = .
                0x00000000000f9cc0                __hooks_chipset_reset = .
 *(.rodata.HOOK_CHIPSET_RESET)
 .rodata.HOOK_CHIPSET_RESET
                0x00000000000f9cc0        0x8 build/hx20/RO/common/fan.o
                0x00000000000f9cc0                __hook_HOOK_CHIPSET_RESET_pwm_fan_start
 .rodata.HOOK_CHIPSET_RESET
                0x00000000000f9cc8        0x8 build/hx20/RO/common/panic_output.o
                0x00000000000f9cc8                __hook_HOOK_CHIPSET_RESET_panic_init
 .rodata.HOOK_CHIPSET_RESET
                0x00000000000f9cd0        0x8 build/hx20/RO/common/vstore.o
                0x00000000000f9cd0                __hook_HOOK_CHIPSET_RESET_vstore_clear_lock
                0x00000000000f9cd8                __hooks_chipset_reset_end = .
                0x00000000000f9cd8                __hooks_ac_change = .
 *(.rodata.HOOK_AC_CHANGE)
 .rodata.HOOK_AC_CHANGE
                0x00000000000f9cd8        0x8 build/hx20/RO/baseboard/fwk/battery.o
                0x00000000000f9cd8                __hook_HOOK_AC_CHANGE_battery_percentage_control
 .rodata.HOOK_AC_CHANGE
                0x00000000000f9ce0       0x10 build/hx20/RO/board/hx20/board.o
                0x00000000000f9ce0                __hook_HOOK_AC_CHANGE_charger_update
                0x00000000000f9ce8                __hook_HOOK_AC_CHANGE_board_extpower
 .rodata.HOOK_AC_CHANGE
                0x00000000000f9cf0        0x8 build/hx20/RO/board/hx20/cpu_power.o
                0x00000000000f9cf0                __hook_HOOK_AC_CHANGE_update_soc_power_limit_hook
 .rodata.HOOK_AC_CHANGE
                0x00000000000f9cf8        0x8 build/hx20/RO/common/battery.o
                0x00000000000f9cf8                __hook_HOOK_AC_CHANGE_clear_pending_cutoff
 .rodata.HOOK_AC_CHANGE
                0x00000000000f9d00        0x8 build/hx20/RO/common/charge_state_v2.o
                0x00000000000f9d00                __hook_HOOK_AC_CHANGE_charge_wakeup
 .rodata.HOOK_AC_CHANGE
                0x00000000000f9d08        0x8 build/hx20/RO/power/common.o
                0x00000000000f9d08                __hook_HOOK_AC_CHANGE_power_ac_change
                0x00000000000f9d10                __hooks_ac_change_end = .
                0x00000000000f9d10                __hooks_lid_change = .
 *(.rodata.HOOK_LID_CHANGE)
 .rodata.HOOK_LID_CHANGE
                0x00000000000f9d10        0x8 build/hx20/RO/board/hx20/power_button_x86.o
                0x00000000000f9d10                __hook_HOOK_LID_CHANGE_powerbtn_x86_lid_change
 .rodata.HOOK_LID_CHANGE
                0x00000000000f9d18        0x8 build/hx20/RO/common/keyboard_backlight.o
                0x00000000000f9d18                __hook_HOOK_LID_CHANGE_kblight_lid_change
 .rodata.HOOK_LID_CHANGE
                0x00000000000f9d20        0x8 build/hx20/RO/common/keyboard_scan.o
                0x00000000000f9d20                __hook_HOOK_LID_CHANGE_keyboard_lid_change
 .rodata.HOOK_LID_CHANGE
                0x00000000000f9d28        0x8 build/hx20/RO/common/switch.o
                0x00000000000f9d28                __hook_HOOK_LID_CHANGE_switch_update
 .rodata.HOOK_LID_CHANGE
                0x00000000000f9d30        0x8 build/hx20/RO/power/common.o
                0x00000000000f9d30                __hook_HOOK_LID_CHANGE_power_lid_change
                0x00000000000f9d38                __hooks_lid_change_end = .
                0x00000000000f9d38                __hooks_tablet_mode_change = .
 *(.rodata.HOOK_TABLET_MODE_CHANGE)
                0x00000000000f9d38                __hooks_tablet_mode_change_end = .
                0x00000000000f9d38                __hooks_base_attached_change = .
 *(.rodata.HOOK_BASE_ATTACHED_CHANGE)
                0x00000000000f9d38                __hooks_base_attached_change_end = .
                0x00000000000f9d38                __hooks_pwrbtn_change = .
 *(.rodata.HOOK_POWER_BUTTON_CHANGE)
 .rodata.HOOK_POWER_BUTTON_CHANGE
                0x00000000000f9d38        0x8 build/hx20/RO/board/hx20/power_button_x86.o
                0x00000000000f9d38                __hook_HOOK_POWER_BUTTON_CHANGE_powerbtn_x86_changed
 .rodata.HOOK_POWER_BUTTON_CHANGE
                0x00000000000f9d40        0x8 build/hx20/RO/common/switch.o
                0x00000000000f9d40                __hook_HOOK_POWER_BUTTON_CHANGE_switch_update
                0x00000000000f9d48                __hooks_pwrbtn_change_end = .
                0x00000000000f9d48                __hooks_battery_soc_change = .
 *(.rodata.HOOK_BATTERY_SOC_CHANGE)
 .rodata.HOOK_BATTERY_SOC_CHANGE
                0x00000000000f9d48        0x8 build/hx20/RO/baseboard/fwk/battery.o
                0x00000000000f9d48                __hook_HOOK_BATTERY_SOC_CHANGE_battery_percentage_control
 .rodata.HOOK_BATTERY_SOC_CHANGE
                0x00000000000f9d50        0x8 build/hx20/RO/board/hx20/board.o
                0x00000000000f9d50                __hook_HOOK_BATTERY_SOC_CHANGE_charger_update
 .rodata.HOOK_BATTERY_SOC_CHANGE
                0x00000000000f9d58        0x8 build/hx20/RO/board/hx20/cpu_power.o
                0x00000000000f9d58                __hook_HOOK_BATTERY_SOC_CHANGE_update_soc_power_limit_hook
                0x00000000000f9d60                __hooks_battery_soc_change_end = .
                0x00000000000f9d60                __hooks_tick = .
 *(.rodata.HOOK_TICK)
 .rodata.HOOK_TICK
                0x00000000000f9d60        0x8 build/hx20/RO/board/hx20/led.o
                0x00000000000f9d60                __hook_HOOK_TICK_led_tick
 .rodata.HOOK_TICK
                0x00000000000f9d68        0x8 build/hx20/RO/board/hx20/power_sequence.o
                0x00000000000f9d68                __hook_HOOK_TICK_s0ix_status_handle
 .rodata.HOOK_TICK
                0x00000000000f9d70        0x8 build/hx20/RO/chip/mchp/watchdog.o
                0x00000000000f9d70                __hook_HOOK_TICK_watchdog_reload
                0x00000000000f9d78                __hooks_tick_end = .
                0x00000000000f9d78                __hooks_second = .
 *(.rodata.HOOK_SECOND)
 .rodata.HOOK_SECOND
                0x00000000000f9d78        0x8 build/hx20/RO/board/hx20/board.o
                0x00000000000f9d78                __hook_HOOK_SECOND_prochot_monitor
 .rodata.HOOK_SECOND
                0x00000000000f9d80        0x8 build/hx20/RO/common/dptf.o
                0x00000000000f9d80                __hook_HOOK_SECOND_thermal_control_dptf
 .rodata.HOOK_SECOND
                0x00000000000f9d88        0x8 build/hx20/RO/common/fan.o
                0x00000000000f9d88                __hook_HOOK_SECOND_pwm_fan_second
 .rodata.HOOK_SECOND
                0x00000000000f9d90        0x8 build/hx20/RO/common/temp_sensor.o
                0x00000000000f9d90                __hook_HOOK_SECOND_update_mapped_memory
 .rodata.HOOK_SECOND
                0x00000000000f9d98        0x8 build/hx20/RO/common/thermal.o
                0x00000000000f9d98                __hook_HOOK_SECOND_thermal_control
 .rodata.HOOK_SECOND
                0x00000000000f9da0        0x8 build/hx20/RO/driver/temp_sensor/f75303.o
                0x00000000000f9da0                __hook_HOOK_SECOND_f75303_sensor_poll
 .rodata.HOOK_SECOND
                0x00000000000f9da8        0x8 build/hx20/RO/power/common.o
                0x00000000000f9da8                __hook_HOOK_SECOND_reset_power_signal_interrupt_count
                0x00000000000f9db0                __hooks_second_end = .
                0x00000000000f9db0                __hooks_usb_pd_disconnect = .
 *(.rodata.HOOK_USB_PD_DISCONNECT)
                0x00000000000f9db0                __hooks_usb_pd_disconnect_end = .
                0x00000000000f9db0                __hooks_usb_pd_connect = .
 *(.rodata.HOOK_USB_PD_CONNECT)
                0x00000000000f9db0                __hooks_usb_pd_connect_end = .
                0x00000000000f9db0                __deferred_funcs = .
 *(.rodata.deferred)
 .rodata.deferred
                0x00000000000f9db0        0x4 build/hx20/RO/baseboard/fwk/diagnostics.o
                0x00000000000f9db0                diagnostic_check_tempsensor_deferred_data
 .rodata.deferred
                0x00000000000f9db4        0x4 build/hx20/RO/baseboard/fwk/ps2mouse.o
                0x00000000000f9db4                retry_tp_read_evt_deferred_data
 .rodata.deferred
                0x00000000000f9db8       0x18 build/hx20/RO/board/hx20/board.o
                0x00000000000f9db8                mainboard_power_button_change_deferred_data
                0x00000000000f9dbc                charger_chips_init_retry_data
                0x00000000000f9dc0                fingerprint_ctrl_detection_deferred_data
                0x00000000000f9dc4                bkoff_on_deferred_data
                0x00000000000f9dc8                fingerprint_power_button_change_deferred_data
                0x00000000000f9dcc                board_power_off_deferred_data
 .rodata.deferred
                0x00000000000f9dd0       0x14 build/hx20/RO/board/hx20/cypress5525.o
                0x00000000000f9dd0                pd_extpower_deferred_data
                0x00000000000f9dd4                pd_bb_powerdown_deferred_data
                0x00000000000f9dd8                pd0_chip_interrupt_deferred_data
                0x00000000000f9ddc                update_power_limit_deferred_data
                0x00000000000f9de0                pd1_chip_interrupt_deferred_data
 .rodata.deferred
                0x00000000000f9de4        0x4 build/hx20/RO/board/hx20/host_command_customization.o
                0x00000000000f9de4                sci_enable_data
 .rodata.deferred
                0x00000000000f9de8        0x4 build/hx20/RO/board/hx20/keyboard_customization.o
                0x00000000000f9de8                fp_power_button_deferred_data
 .rodata.deferred
                0x00000000000f9dec        0x4 build/hx20/RO/chip/mchp/clock.o
                0x00000000000f9dec                clock_turbo_disable_data
 .rodata.deferred
                0x00000000000f9df0        0x4 build/hx20/RO/chip/mchp/espi.o
                0x00000000000f9df0                espi_chipset_reset_data
 .rodata.deferred
                0x00000000000f9df4        0x8 build/hx20/RO/chip/mchp/lpc.o
                0x00000000000f9df4                handle_keyboard_ibf_deferred_data
                0x00000000000f9df8                lpc_chipset_reset_data
 .rodata.deferred
                0x00000000000f9dfc        0x4 build/hx20/RO/common/acpi.o
                0x00000000000f9dfc                acpi_disable_burst_deferred_data
 .rodata.deferred
                0x00000000000f9e00        0x4 build/hx20/RO/common/battery.o
                0x00000000000f9e00                pending_cutoff_deferred_data
 .rodata.deferred
                0x00000000000f9e04        0xc build/hx20/RO/common/charge_manager.o
                0x00000000000f9e04                charge_manager_refresh_data
                0x00000000000f9e08                charge_override_timeout_data
                0x00000000000f9e0c                charger_detect_debounced_data
 .rodata.deferred
                0x00000000000f9e10        0x4 build/hx20/RO/common/extpower_gpio.o
                0x00000000000f9e10                extpower_deferred_data
 .rodata.deferred
                0x00000000000f9e14        0x4 build/hx20/RO/common/keyboard_8042.o
                0x00000000000f9e14                send_aux_data_to_host_deferred_data
 .rodata.deferred
                0x00000000000f9e18        0x4 build/hx20/RO/common/keyboard_backlight.o
                0x00000000000f9e18                kblight_set_deferred_data
 .rodata.deferred
                0x00000000000f9e1c        0x4 build/hx20/RO/common/lid_switch.o
                0x00000000000f9e1c                lid_change_deferred_data
 .rodata.deferred
                0x00000000000f9e20        0x4 build/hx20/RO/common/port80.o
                0x00000000000f9e20                port80_dump_buffer_data
 .rodata.deferred
                0x00000000000f9e24        0x4 build/hx20/RO/common/power_button.o
                0x00000000000f9e24                power_button_change_deferred_data
 .rodata.deferred
                0x00000000000f9e28        0x4 build/hx20/RO/common/switch.o
                0x00000000000f9e28                switch_update_data
 .rodata.deferred
                0x00000000000f9e2c        0x4 build/hx20/RO/common/throttle_ap.o
                0x00000000000f9e2c                prochot_input_deferred_data
 .rodata.deferred
                0x00000000000f9e30        0x4 build/hx20/RO/power/common.o
                0x00000000000f9e30                power_update_wake_mask_deferred_data
                0x00000000000f9e34                __deferred_funcs_end = .
                0x00000000000f9e34                __usb_desc = .
 *(.rodata.usb_desc_conf)
 *(SORT_BY_NAME(.rodata.usb_desc*))
                0x00000000000f9e34                __usb_desc_end = .
                0x00000000000f9e34                . = ALIGN (0x4)
 *(.rodata.usb_ep)
 *(.rodata.usb_ep.usb_ep_tx)
 *(.rodata.usb_ep.usb_ep_rx)
 *(.rodata.usb_ep.usb_ep_reset)
 *(.rodata.usb_ep.usb_iface_request)
                0x00000000000f9e34                . = ALIGN (0x4)
 *(.rodata*)
 .rodata.str1.1
                0x00000000000f9e34       0x32 build/hx20/RO/baseboard/fwk/baseboard_host_commands.o
 .rodata.str1.1
                0x00000000000f9e66       0x7e build/hx20/RO/baseboard/fwk/battery.o
 .rodata        0x00000000000f9ee4       0x1c build/hx20/RO/baseboard/fwk/battery.o
 .rodata.str1.1
                0x00000000000f9f00       0x6f build/hx20/RO/baseboard/fwk/diagnostics.o
 .rodata.str1.1
                0x00000000000f9f6f       0xd9 build/hx20/RO/baseboard/fwk/flash_storage.o
                                         0xdf (size before relaxing)
 .rodata        0x00000000000fa048       0x1f build/hx20/RO/baseboard/fwk/flash_storage.o
 .rodata.str1.1
                0x00000000000fa067      0x28a build/hx20/RO/baseboard/fwk/ps2mouse.o
                                        0x297 (size before relaxing)
 *fill*         0x00000000000fa2f1        0x1 
 .rodata        0x00000000000fa2f2       0x11 build/hx20/RO/baseboard/fwk/ps2mouse.o
 .rodata.str1.1
                0x00000000000fa303      0x742 build/hx20/RO/board/hx20/board.o
                                        0x773 (size before relaxing)
 *fill*         0x00000000000faa45        0x3 
 .rodata        0x00000000000faa48      0x890 build/hx20/RO/board/hx20/board.o
                0x00000000000faae8                i2c_port_to_ctrl
                0x00000000000faaf4                hx20_board_versions
                0x00000000000fab84                fans
                0x00000000000fab8c                fan_rpm_0
                0x00000000000fab98                fan_conf_0
                0x00000000000faba8                temp_sensors
                0x00000000000fabf8                chg_chips
                0x00000000000fac0c                hibernate_wake_pins_used
                0x00000000000fac10                hibernate_wake_pins
                0x00000000000fac18                spi_devices_used
                0x00000000000fac1c                spi_devices
                0x00000000000fac20                i2c_slvs_used
                0x00000000000fac24                i2c_slv_ports
                0x00000000000fac30                i2c_ports_used
                0x00000000000fac34                i2c_ports
                0x00000000000facc0                adc_channels
                0x00000000000fad4c                ioex_ih_count
                0x00000000000fad50                gpio_ih_count
                0x00000000000fad50                ioex_irq_handlers
                0x00000000000fad50                ioex_list
                0x00000000000fad54                gpio_irq_handlers
                0x00000000000fadac                unused_pin_count
                0x00000000000fadb0                gpio_list
                0x00000000000fadb0                unused_pin_list
                0x00000000000fb210                pwm_channels
                0x00000000000fb278                power_signal_list
 .rodata.str1.1
                0x00000000000fb2d8       0xca build/hx20/RO/board/hx20/cpu_power.o
                                         0xcf (size before relaxing)
 .rodata        0x00000000000fb3a2        0x9 build/hx20/RO/board/hx20/cpu_power.o
 .rodata.str1.1
                0x00000000000fb3ab      0xadc build/hx20/RO/board/hx20/cypress5525.o
                                        0xb0e (size before relaxing)
 *fill*         0x00000000000fbe87        0x1 
 .rodata        0x00000000000fbe88      0x1d2 build/hx20/RO/board/hx20/cypress5525.o
 .rodata.str1.1
                0x00000000000fc05a       0x73 build/hx20/RO/board/hx20/host_command_customization.o
 .rodata.str1.1
                0x00000000000fc0cd       0x20 build/hx20/RO/board/hx20/i2c_hid_mediakeys.o
 .rodata        0x00000000000fc0ed       0x32 build/hx20/RO/board/hx20/i2c_hid_mediakeys.o
 *fill*         0x00000000000fc11f        0x1 
 .rodata        0x00000000000fc120       0x10 build/hx20/RO/board/hx20/keyboard_customization.o
                0x00000000000fc120                kblight_hx20
 .rodata        0x00000000000fc130        0x7 build/hx20/RO/board/hx20/led.o
                0x00000000000fc130                supported_led_ids_count
                0x00000000000fc134                supported_led_ids
 .rodata        0x00000000000fc137        0x9 build/hx20/RO/board/hx20/peci_customization.o
 .rodata.str1.1
                0x00000000000fc140      0x22e build/hx20/RO/board/hx20/power_button_x86.o
                                        0x255 (size before relaxing)
 *fill*         0x00000000000fc36e        0x2 
 .rodata        0x00000000000fc370       0x38 build/hx20/RO/board/hx20/power_button_x86.o
 .rodata.str1.1
                0x00000000000fc3a8      0x15d build/hx20/RO/board/hx20/power_sequence.o
                                        0x16f (size before relaxing)
 .rodata        0x00000000000fc505       0x17 build/hx20/RO/board/hx20/power_sequence.o
 .rodata.str1.1
                0x00000000000fc51c      0x1a1 build/hx20/RO/board/hx20/ucsi.o
                                        0x1ba (size before relaxing)
 .rodata        0x00000000000fc6bd       0x15 build/hx20/RO/board/hx20/ucsi.o
 *fill*         0x00000000000fc6d2        0x2 
 .rodata        0x00000000000fc6d4      0x168 build/hx20/RO/chip/mchp/espi.o
                0x00000000000fc78c                girq24_vw_handlers
                0x00000000000fc7fc                girq25_vw_handlers
 .rodata        0x00000000000fc83c        0xc build/hx20/RO/chip/mchp/gpio.o
 .rodata.str1.1
                0x00000000000fc848       0xf6 build/hx20/RO/chip/mchp/i2c.o
 *fill*         0x00000000000fc93e        0x2 
 .rodata        0x00000000000fc940       0x3a build/hx20/RO/chip/mchp/i2c.o
                0x00000000000fc940                i2c_freq_tbl
 *fill*         0x00000000000fc97a        0x2 
 .rodata        0x00000000000fc97c       0x38 build/hx20/RO/chip/mchp/lpc.o
                0x00000000000fc97c                acpi_ec_pcr_slp
                0x00000000000fc98c                acpi_ec_espi_bar_id
                0x00000000000fc99c                acpi_ec_nvic_ibf
 .rodata        0x00000000000fc9b4       0x24 build/hx20/RO/chip/mchp/pwm.o
                0x00000000000fc9b4                pwm_slp_bitpos
 .rodata        0x00000000000fc9d8       0x18 build/hx20/RO/chip/mchp/spi.o
 .rodata.str1.1
                0x00000000000fc9f0       0x15 build/hx20/RO/chip/mchp/system.o
 .rodata        0x00000000000fca05        0xf build/hx20/RO/chip/mchp/system.o
 .rodata.str1.1
                0x00000000000fca14       0x82 build/hx20/RO/common/acpi.o
 .rodata.str1.1
                0x00000000000fca96       0x27 build/hx20/RO/common/adc.o
 .rodata        0x00000000000fcabd        0x4 build/hx20/RO/common/adc.o
 .rodata.str1.1
                0x00000000000fcac1      0x2ac build/hx20/RO/common/battery.o
                                        0x2ea (size before relaxing)
 *fill*         0x00000000000fcd6d        0x3 
 .rodata        0x00000000000fcd70       0x3f build/hx20/RO/common/battery.o
 .rodata.str1.1
                0x00000000000fcdaf      0x11a build/hx20/RO/common/charge_manager.o
 *fill*         0x00000000000fcec9        0x3 
 .rodata        0x00000000000fcecc       0x70 build/hx20/RO/common/charge_manager.o
                0x00000000000fcf30                supplier_priority
 .rodata.str1.1
                0x00000000000fcf3c      0x5ea build/hx20/RO/common/charge_state_v2.o
                                        0x5fe (size before relaxing)
 *fill*         0x00000000000fd526        0x2 
 .rodata        0x00000000000fd528       0x64 build/hx20/RO/common/charge_state_v2.o
 .rodata.str1.1
                0x00000000000fd58c       0xf8 build/hx20/RO/common/charger.o
                                        0x11e (size before relaxing)
 .rodata        0x00000000000fd684      0x1c5 build/hx20/RO/common/charger.o
 .rodata.str1.1
                0x00000000000fd849       0x36 build/hx20/RO/common/chipset.o
 .rodata        0x00000000000fd87f       0x13 build/hx20/RO/common/chipset.o
 .rodata.str1.1
                0x00000000000fd892      0x1c0 build/hx20/RO/common/console.o
                                        0x1cf (size before relaxing)
 *fill*         0x00000000000fda52        0x2 
 .rodata        0x00000000000fda54       0x35 build/hx20/RO/common/console.o
 .rodata.str1.1
                0x00000000000fda89      0x127 build/hx20/RO/common/console_output.o
                                        0x13b (size before relaxing)
 .rodata        0x00000000000fdbb0       0x71 build/hx20/RO/common/console_output.o
 .rodata.str1.1
                0x00000000000fdc21      0x11f build/hx20/RO/common/dptf.o
                                        0x12e (size before relaxing)
 .rodata        0x00000000000fdd40        0x9 build/hx20/RO/common/dptf.o
 .rodata.str1.1
                0x00000000000fdd49       0x32 build/hx20/RO/common/ec_features.o
                                         0x33 (size before relaxing)
 .rodata        0x00000000000fdd7b        0x5 build/hx20/RO/common/ec_features.o
 .rodata.str1.1
                0x00000000000fdd80      0x1eb build/hx20/RO/common/fan.o
                                        0x1f4 (size before relaxing)
 *fill*         0x00000000000fdf6b        0x1 
 .rodata        0x00000000000fdf6c       0x3d build/hx20/RO/common/fan.o
 .rodata.str1.1
                0x00000000000fdfa9      0x114 build/hx20/RO/common/flash.o
                                        0x12a (size before relaxing)
 .rodata        0x00000000000fe0bd       0x12 build/hx20/RO/common/flash.o
 *fill*         0x00000000000fe0cf        0x1 
 .rodata        0x00000000000fe0d0      0x1f7 build/hx20/RO/common/gpio.o
 .rodata.str1.1
                0x00000000000fe2c7       0x43 build/hx20/RO/common/gpio_commands.o
                                         0x5e (size before relaxing)
 *fill*         0x00000000000fe30a        0x2 
 .rodata        0x00000000000fe30c       0x68 build/hx20/RO/common/gpio_commands.o
                0x00000000000fe31c                gpio_descriptions
 .rodata        0x00000000000fe374       0xa8 build/hx20/RO/common/hooks.o
 .rodata.str1.1
                0x00000000000fe41c      0x11b build/hx20/RO/common/host_command.o
                                        0x126 (size before relaxing)
 *fill*         0x00000000000fe537        0x1 
 .rodata        0x00000000000fe538       0x2c build/hx20/RO/common/host_command.o
 .rodata.str1.1
                0x00000000000fe564      0x130 build/hx20/RO/common/host_event_commands.o
                                        0x147 (size before relaxing)
 .rodata        0x00000000000fe694        0xa build/hx20/RO/common/host_event_commands.o
 .rodata.str1.1
                0x00000000000fe69e      0x19c build/hx20/RO/common/i2c_master.o
                                        0x1a4 (size before relaxing)
 .rodata        0x00000000000fe83a       0x3c build/hx20/RO/common/i2c_master.o
 .rodata.str1.1
                0x00000000000fe876      0x463 build/hx20/RO/common/keyboard_8042.o
                                        0x479 (size before relaxing)
 *fill*         0x00000000000fecd9        0x3 
 .rodata        0x00000000000fecdc       0xb9 build/hx20/RO/common/keyboard_8042.o
 *fill*         0x00000000000fed95        0x3 
 .rodata        0x00000000000fed98       0xe8 build/hx20/RO/common/keyboard_8042_sharedlib.o
                0x00000000000fed98                scancode_translate_table
                0x00000000000fee18                buttons_8042
 .rodata.str1.1
                0x00000000000fee80       0x5c build/hx20/RO/common/keyboard_backlight.o
                                         0x64 (size before relaxing)
 .rodata        0x00000000000feedc        0x8 build/hx20/RO/common/keyboard_backlight.o
 .rodata.str1.1
                0x00000000000feee4      0x16a build/hx20/RO/common/keyboard_scan.o
                                        0x17a (size before relaxing)
 .rodata        0x00000000000ff04e       0x16 build/hx20/RO/common/keyboard_scan.o
 .rodata.str1.1
                0x00000000000ff064       0xf0 build/hx20/RO/common/keyboard_vivaldi.o
 .rodata        0x00000000000ff154       0x50 build/hx20/RO/common/keyboard_vivaldi.o
 .rodata.str1.1
                0x00000000000ff1a4       0x71 build/hx20/RO/common/led_pwm.o
                                         0x7a (size before relaxing)
 .rodata        0x00000000000ff215        0x8 build/hx20/RO/common/led_pwm.o
 .rodata.str1.1
                0x00000000000ff21d       0x69 build/hx20/RO/common/lid_switch.o
                                         0x88 (size before relaxing)
 .rodata        0x00000000000ff286       0x1a build/hx20/RO/common/lid_switch.o
 .rodata.str1.1
                0x00000000000ff2a0       0x72 build/hx20/RO/common/main.o
                                         0x77 (size before relaxing)
 .rodata.str1.1
                0x00000000000ff312      0x12d build/hx20/RO/common/memory_commands.o
                                        0x138 (size before relaxing)
 .rodata        0x00000000000ff43f        0x6 build/hx20/RO/common/memory_commands.o
 .rodata.str1.1
                0x00000000000ff445      0x200 build/hx20/RO/common/panic_output.o
                                        0x219 (size before relaxing)
 *fill*         0x00000000000ff645        0x3 
 .rodata        0x00000000000ff648       0x54 build/hx20/RO/common/panic_output.o
                0x00000000000ff680                panic_sw_reasons
 .rodata.str1.1
                0x00000000000ff69c       0x9e build/hx20/RO/common/peci.o
 .rodata        0x00000000000ff73a       0x1d build/hx20/RO/common/peci.o
 .rodata.str1.1
                0x00000000000ff757       0xcf build/hx20/RO/common/port80.o
                                         0xdc (size before relaxing)
 .rodata        0x00000000000ff826        0x7 build/hx20/RO/common/port80.o
 .rodata.str1.1
                0x00000000000ff82d       0x90 build/hx20/RO/common/power_button.o
                                         0xa7 (size before relaxing)
 .rodata        0x00000000000ff8bd        0x9 build/hx20/RO/common/power_button.o
 .rodata.str1.1
                0x00000000000ff8c6        0x7 build/hx20/RO/common/printf.o
 .rodata        0x00000000000ff8cd        0x6 build/hx20/RO/common/printf.o
 .rodata.str1.1
                0x00000000000ff8d3       0x9f build/hx20/RO/common/pwm.o
 .rodata        0x00000000000ff972        0x8 build/hx20/RO/common/pwm.o
 .rodata.str1.1
                0x00000000000ff97a       0x99 build/hx20/RO/common/queue.o
 *fill*         0x00000000000ffa13        0x1 
 .rodata        0x00000000000ffa14       0x14 build/hx20/RO/common/queue.o
                0x00000000000ffa20                queue_policy_null
 .rodata.str1.1
                0x00000000000ffa28       0x38 build/hx20/RO/common/shared_mem.o
 .rodata        0x00000000000ffa60        0x6 build/hx20/RO/common/shared_mem.o
 .rodata.str1.1
                0x00000000000ffa66       0x4d build/hx20/RO/common/spi_commands.o
                                         0x5f (size before relaxing)
 .rodata        0x00000000000ffab3        0x8 build/hx20/RO/common/spi_commands.o
 .rodata.str1.1
                0x00000000000ffabb      0x251 build/hx20/RO/common/spi_flash.o
                                        0x259 (size before relaxing)
 .rodata        0x00000000000ffd0c       0x97 build/hx20/RO/common/spi_flash.o
 *fill*         0x00000000000ffda3        0x1 
 .rodata        0x00000000000ffda4       0x40 build/hx20/RO/common/spi_flash_reg.o
 .rodata.str1.1
                0x00000000000ffde4       0x6f build/hx20/RO/common/switch.o
                                         0x74 (size before relaxing)
 *fill*         0x00000000000ffe53        0x1 
 .rodata        0x00000000000ffe54       0x21 build/hx20/RO/common/switch.o
 .rodata.str1.1
                0x00000000000ffe75      0x3d6 build/hx20/RO/common/system.o
                                        0x424 (size before relaxing)
 *fill*         0x000000000010024b        0x1 
 .rodata        0x000000000010024c       0xa1 build/hx20/RO/common/system.o
 .rodata.str1.1
                0x00000000001002ed       0x4d build/hx20/RO/common/temp_sensor.o
                                         0x59 (size before relaxing)
 .rodata        0x000000000010033a        0x6 build/hx20/RO/common/temp_sensor.o
 .rodata.str1.1
                0x0000000000100340      0x16e build/hx20/RO/common/thermal.o
                                        0x18b (size before relaxing)
 .rodata        0x00000000001004ae       0x16 build/hx20/RO/common/thermal.o
 .rodata.str1.1
                0x00000000001004c4       0xeb build/hx20/RO/common/throttle_ap.o
                                         0xf2 (size before relaxing)
 .rodata        0x00000000001005af       0x22 build/hx20/RO/common/throttle_ap.o
 .rodata.str1.1
                0x00000000001005d1      0x106 build/hx20/RO/common/timer.o
                                        0x109 (size before relaxing)
 .rodata        0x00000000001006d7       0x2d build/hx20/RO/common/timer.o
 .rodata.str1.1
                0x0000000000100704        0xa build/hx20/RO/common/util.o
                                         0x22 (size before relaxing)
 .rodata.buildinfo
                0x000000000010070e       0x3a build/hx20/RO/common/version.o
                0x000000000010070e                build_info
 .rodata.str1.1
                0x0000000000100748      0x2a5 build/hx20/RO/core/cortex-m/panic.o
                                        0x2c0 (size before relaxing)
 *fill*         0x00000000001009ed        0x3 
 .rodata        0x00000000001009f0       0xa8 build/hx20/RO/core/cortex-m/panic.o
 .rodata.str1.1
                0x0000000000100a98      0x25d build/hx20/RO/core/cortex-m/task.o
 *fill*         0x0000000000100cf5        0x3 
 .rodata        0x0000000000100cf8       0xfd build/hx20/RO/core/cortex-m/task.o
 .rodata.str1.1
                0x0000000000100df5       0x45 build/hx20/RO/core/cortex-m/watchdog.o
 .rodata.str1.1
                0x0000000000100e3a      0x130 build/hx20/RO/driver/battery/smart.o
 .rodata        0x0000000000100f6a       0x16 build/hx20/RO/driver/battery/smart.o
 .rodata.str1.1
                0x0000000000100f80       0x9d build/hx20/RO/driver/charger/isl9241.o
                                         0xa5 (size before relaxing)
 *fill*         0x000000000010101d        0x3 
 .rodata        0x0000000000101020       0x89 build/hx20/RO/driver/charger/isl9241.o
                0x0000000000101038                isl9241_drv
 .rodata.str1.1
                0x00000000001010a9       0x7b build/hx20/RO/driver/temp_sensor/f75303.o
                                         0x7f (size before relaxing)
 .rodata        0x0000000000101124        0x7 build/hx20/RO/driver/temp_sensor/f75303.o
 .rodata.str1.1
                0x000000000010112b      0x266 build/hx20/RO/power/common.o
                                        0x287 (size before relaxing)
 *fill*         0x0000000000101391        0x3 
 .rodata        0x0000000000101394       0x61 build/hx20/RO/power/common.o
                0x00000000001013f8                . = ALIGN (0x4)
 *fill*         0x00000000001013f5        0x3 
                0x00000000001013f8                __init_rom_start = .
 *(.init.rom)
                0x00000000001013f8                __init_rom_end = .
                0x0000000000101400                . = ALIGN (0x40)
 *fill*         0x00000000001013f8        0x8 
 *(.google)
 .google        0x0000000000101400      0x15e build/hx20/RO/common/fmap.o
                0x0000000000101400                ec_fmap
                0x0000000000101560                . = ALIGN (0x4)
 *fill*         0x000000000010155e        0x2 
                0x0000000000101560                __data_lma_start = .

.rel.dyn        0x0000000000101560        0x0
 .rel.iplt      0x0000000000101560        0x0 build/hx20/RO/baseboard/fwk/baseboard_host_commands.o

.bss            0x0000000000110000     0x63a8
                0x0000000000110000                . = ALIGN (0x200)
                0x0000000000110000                __bss_start = .
 *(.bss.big_align)
 .bss.big_align
                0x0000000000110000      0x400 build/hx20/RO/chip/mchp/lpc.o
                0x0000000000110400                . = ALIGN (0x8)
 *(.bss.system_stack)
 .bss.system_stack
                0x0000000000110400      0x800 build/hx20/RO/core/cortex-m/init.o
                0x0000000000110c00                stack_end
                0x0000000000110c00                __bss_libtpm2_start = .
 build/hx20/RO/common/tpm_registers.o*(.bss)
 *(.bss.Tpm2_common)
                0x0000000000110c00                __bss_libtpm2_end = .
 *(.bss)
 .bss           0x0000000000110c00       0x50 build/hx20/RO/baseboard/fwk/battery.o
 .bss           0x0000000000110c50       0x1c build/hx20/RO/baseboard/fwk/diagnostics.o
                0x0000000000110c50                hw_diagnostics
                0x0000000000110c54                standalone_mode
                0x0000000000110c58                hw_diagnostics_ctr
                0x0000000000110c5c                bios_complete
                0x0000000000110c60                bios_code
                0x0000000000110c64                hw_diagnostic_tick
                0x0000000000110c68                fan_seen
                0x0000000000110c69                s0_seen
                0x0000000000110c6a                run_diagnostics
                0x0000000000110c6b                bios_hc
 *fill*         0x0000000000110c6c        0x4 
 .bss           0x0000000000110c70       0x14 build/hx20/RO/baseboard/fwk/fan.o
                0x0000000000110c78                fan_spindown_time
 .bss           0x0000000000110c84       0x51 build/hx20/RO/baseboard/fwk/flash_storage.o
                0x0000000000110cd4                flash_storage_dirty
 *fill*         0x0000000000110cd5        0x3 
 .bss           0x0000000000110cd8       0x1c build/hx20/RO/baseboard/fwk/ps2mouse.o
                0x0000000000110ce0                unprocessed_tp_int_count
                0x0000000000110ce8                last_int_time
 *fill*         0x0000000000110cf4        0x4 
 .bss           0x0000000000110cf8       0xd4 build/hx20/RO/board/hx20/board.o
                0x0000000000110cfc                thermal_params
                0x0000000000110da0                mainboard_power_button_first_state
                0x0000000000110db8                fingerprint_power_button_first_state
 .bss           0x0000000000110dcc       0x11 build/hx20/RO/board/hx20/cpu_power.o
                0x0000000000110ddc                manual_ctl
 *fill*         0x0000000000110ddd        0x3 
 .bss           0x0000000000110de0      0x8c0 build/hx20/RO/board/hx20/cypress5525.o
                0x0000000000110e3c                verbose_msg_logging
                0x0000000000110e40                rx_emsg
                0x0000000000111270                tx_emsg
 .bss           0x00000000001116a0        0x9 build/hx20/RO/board/hx20/i2c_hid_mediakeys.o
 *fill*         0x00000000001116a9        0x3 
 .bss           0x00000000001116ac       0x15 build/hx20/RO/board/hx20/keyboard_customization.o
 *fill*         0x00000000001116c1        0x3 
 .bss           0x00000000001116c4       0x14 build/hx20/RO/board/hx20/led.o
                0x00000000001116c8                breath_led_length
                0x00000000001116d0                power_button_enable
 .bss           0x00000000001116d8        0xc build/hx20/RO/board/hx20/peci_customization.o
 *fill*         0x00000000001116e4        0x4 
 .bss           0x00000000001116e8       0x1c build/hx20/RO/board/hx20/power_button_x86.o
 *fill*         0x0000000000111704        0x4 
 .bss           0x0000000000111708       0x2c build/hx20/RO/board/hx20/power_sequence.o
 *fill*         0x0000000000111734        0x4 
 .bss           0x0000000000111738       0x8c build/hx20/RO/board/hx20/ucsi.o
                0x0000000000111740                ucsi_wait_time
 .bss           0x00000000001117c4        0xc build/hx20/RO/chip/mchp/adc.o
                0x00000000001117c8                adc_lock
 .bss           0x00000000001117d0      0x104 build/hx20/RO/chip/mchp/espi.o
 .bss           0x00000000001118d4        0x4 build/hx20/RO/chip/mchp/flash.o
 .bss           0x00000000001118d8      0x258 build/hx20/RO/chip/mchp/i2c.o
 .bss           0x0000000000111b30      0x140 build/hx20/RO/chip/mchp/lpc.o
 .bss           0x0000000000111c70        0x4 build/hx20/RO/chip/mchp/pwm.o
 .bss           0x0000000000111c74        0x8 build/hx20/RO/chip/mchp/spi.o
 .bss           0x0000000000111c7c        0x3 build/hx20/RO/chip/mchp/system.o
 *fill*         0x0000000000111c7f        0x1 
 .bss           0x0000000000111c80        0x8 build/hx20/RO/chip/mchp/uart.o
 .bss           0x0000000000111c88        0xc build/hx20/RO/common/acpi.o
 .bss           0x0000000000111c94        0x1 build/hx20/RO/common/battery.o
 *fill*         0x0000000000111c95        0x3 
 .bss           0x0000000000111c98       0xc0 build/hx20/RO/common/charge_manager.o
 .bss           0x0000000000111d58       0xc0 build/hx20/RO/common/charge_state_v2.o
 .bss           0x0000000000111e18      0x2e8 build/hx20/RO/common/console.o
 .bss           0x0000000000112100       0x54 build/hx20/RO/common/dptf.o
 .bss           0x0000000000112154        0x4 build/hx20/RO/common/extpower_gpio.o
 .bss           0x0000000000112158        0x4 build/hx20/RO/common/fan.o
 .bss           0x000000000011215c        0x9 build/hx20/RO/common/gpio_commands.o
 *fill*         0x0000000000112165        0x3 
 .bss           0x0000000000112168        0x4 build/hx20/RO/common/hooks.o
 *fill*         0x000000000011216c        0x4 
 .bss           0x0000000000112170       0x34 build/hx20/RO/common/host_command.o
 *fill*         0x00000000001121a4        0x4 
 .bss           0x00000000001121a8       0x58 build/hx20/RO/common/host_event_commands.o
 .bss           0x0000000000112200       0x34 build/hx20/RO/common/i2c_master.o
 *fill*         0x0000000000112234        0x4 
 .bss           0x0000000000112238       0xa4 build/hx20/RO/common/keyboard_8042.o
 .bss           0x00000000001122dc        0x8 build/hx20/RO/common/keyboard_backlight.o
 .bss           0x00000000001122e4       0x10 build/hx20/RO/common/keyboard_scan.o
 .bss           0x00000000001122f4        0x4 build/hx20/RO/common/keyboard_vivaldi.o
 .bss           0x00000000001122f8        0x8 build/hx20/RO/common/lid_switch.o
 .bss           0x0000000000112300        0x8 build/hx20/RO/common/port80.o
 .bss           0x0000000000112308        0x8 build/hx20/RO/common/power_button.o
 .bss           0x0000000000112310        0x8 build/hx20/RO/common/shared_mem.o
 .bss           0x0000000000112318      0x104 build/hx20/RO/common/spi_flash.o
 .bss           0x000000000011241c        0x5 build/hx20/RO/common/switch.o
 *fill*         0x0000000000112421        0x3 
 .bss           0x0000000000112424       0x54 build/hx20/RO/common/system.o
                0x0000000000112474                sleep_mask
 .bss           0x0000000000112478        0x3 build/hx20/RO/common/thermal.o
 *fill*         0x000000000011247b        0x1 
 .bss           0x000000000011247c       0x14 build/hx20/RO/common/throttle_ap.o
 .bss           0x0000000000112490       0x6c build/hx20/RO/common/timer.o
 .bss           0x00000000001124fc      0x8a4 build/hx20/RO/common/uart_buffering.o
 .bss           0x0000000000112da0       0x41 build/hx20/RO/common/vstore.o
 *fill*         0x0000000000112de1        0x3 
 .bss           0x0000000000112de4        0x4 build/hx20/RO/core/cortex-m/panic.o
 .bss           0x0000000000112de8     0x3448 build/hx20/RO/core/cortex-m/task.o
                0x00000000001131e8                scratchpad
                0x0000000000113230                task_stacks
 .bss           0x0000000000116230        0xc build/hx20/RO/driver/charger/isl9241.o
 .bss           0x000000000011623c        0xc build/hx20/RO/driver/temp_sensor/f75303.o
 .bss           0x0000000000116248       0x55 build/hx20/RO/power/common.o
 .bss           0x000000000011629d        0x1 build/hx20/RO/power/host_sleep.o
                0x00000000001162a0                . = ALIGN (0x8)
 *fill*         0x000000000011629e        0x2 
                0x00000000001162a0                __deferred_until = .
                0x00000000001163a8                . = (. + ((__deferred_funcs_end - __deferred_funcs) * 0x2))
 *fill*         0x00000000001162a0      0x108 
                0x00000000001163a8                __deferred_until_end = .

.bss.slow       0x00000000001163a8      0x2f8
 *(.bss.slow)
 .bss.slow      0x00000000001163a8       0x14 build/hx20/RO/common/acpi.o
 *fill*         0x00000000001163bc        0x4 
 .bss.slow      0x00000000001163c0       0x88 build/hx20/RO/common/charge_state_v2.o
 .bss.slow      0x0000000000116448      0x150 build/hx20/RO/common/keyboard_scan.o
 .bss.slow      0x0000000000116598      0x108 build/hx20/RO/common/port80.o
                0x00000000001166a0                . = ALIGN (0x4)
                0x00000000001166a0                __bss_end = .

.data           0x00000000001166a0      0x33c load address 0x0000000000101560
                0x00000000001166a0                . = ALIGN (0x4)
                0x00000000001166a0                __data_start = .
 *(.data.tasks)
                0x00000000001166a0                __data_libtpm2_start = .
 Tpm2_*(.data)
 build/hx20/RO/common/tpm_registers.o*(.data)
                0x00000000001166a0                __data_libtpm2_end = .
                0x0000000000000001                ASSERT ((__data_libtpm2_start == __data_libtpm2_end), libtpm2 .data section is nonzero)
 *(.data*)
 .data          0x00000000001166a0        0x2 build/hx20/RO/baseboard/fwk/battery.o
 *fill*         0x00000000001166a2        0x2 
 .data          0x00000000001166a4        0x4 build/hx20/RO/baseboard/fwk/fan.o
 .data          0x00000000001166a8       0x15 build/hx20/RO/baseboard/fwk/ps2mouse.o
 *fill*         0x00000000001166bd        0x3 
 .data          0x00000000001166c0       0x24 build/hx20/RO/board/hx20/board.o
                0x00000000001166c4                keyscan_config
 .data          0x00000000001166e4        0xc build/hx20/RO/board/hx20/cpu_power.o
 .data          0x00000000001166f0       0x20 build/hx20/RO/board/hx20/cypress5525.o
                0x0000000000116708                saved_bb_power_state
 .data          0x0000000000116710       0x1e build/hx20/RO/board/hx20/i2c_hid_mediakeys.o
 .data          0x000000000011672e      0x100 build/hx20/RO/board/hx20/keyboard_customization.o
                0x000000000011672e                scancode_set2
 *fill*         0x000000000011682e        0x2 
 .data          0x0000000000116830       0xfc build/hx20/RO/board/hx20/led.o
                0x0000000000116830                breath_led_color_map
                0x0000000000116878                pwr_led_color_map
                0x00000000001168c0                pwm_leds
                0x00000000001168e4                led_color_map
 .data          0x000000000011692c        0x8 build/hx20/RO/board/hx20/power_button_x86.o
 .data          0x0000000000116934        0x8 build/hx20/RO/board/hx20/power_sequence.o
 .data          0x000000000011693c        0x4 build/hx20/RO/common/acpi.o
 .data          0x0000000000116940       0x18 build/hx20/RO/common/charge_manager.o
 .data          0x0000000000116958        0x8 build/hx20/RO/common/charge_state_v2.o
 .data          0x0000000000116960        0x4 build/hx20/RO/common/charger.o
 .data          0x0000000000116964        0x8 build/hx20/RO/common/console_output.o
 .data          0x000000000011696c        0x4 build/hx20/RO/common/fan.o
 .data          0x0000000000116970       0x10 build/hx20/RO/common/hooks.o
 .data          0x0000000000116980        0x1 build/hx20/RO/common/host_command.o
 .data          0x0000000000116981       0x21 build/hx20/RO/common/keyboard_8042.o
 .data          0x00000000001169a2        0x2 build/hx20/RO/common/keyboard_scan.o
                0x00000000001169a2                keyboard_cols
 .data          0x00000000001169a4        0x8 build/hx20/RO/common/led_common.o
 .data          0x00000000001169ac        0x4 build/hx20/RO/common/power_button.o
 .data          0x00000000001169b0        0x4 build/hx20/RO/common/system.o
 .data          0x00000000001169b4        0x2 build/hx20/RO/common/throttle_ap.o
 *fill*         0x00000000001169b6        0x2 
 .data          0x00000000001169b8        0x4 build/hx20/RO/common/timer.o
 .data          0x00000000001169bc        0x3 build/hx20/RO/core/cortex-m/panic.o
 *fill*         0x00000000001169bf        0x1 
 .data          0x00000000001169c0        0xc build/hx20/RO/core/cortex-m/task.o
 .data          0x00000000001169cc        0x8 build/hx20/RO/driver/battery/smart.o
 .data          0x00000000001169d4        0x4 build/hx20/RO/driver/temp_sensor/f75303.o
 .data          0x00000000001169d8        0x4 build/hx20/RO/power/common.o
                0x00000000001169dc                . = ALIGN (0x4)
 *(.iram.text)
                0x00000000001169dc                . = ALIGN (0x4)
                0x00000000001169dc                __data_end = .
                0x00000000001169dc                __shared_mem_buf = .
                0x0000000000000001                ASSERT (((__shared_mem_buf + 0x400) <= 0x120000), Not enough space for shared memory.)
                0x0000000000009224                __ram_free = (0x120000 - (__shared_mem_buf + 0x400))
                0x000000000002089c                __flash_used = ((LOADADDR (.data) + SIZEOF (.data)) - ORIGIN (FLASH))
                0x000000000002089c                __image_size = __flash_used
                0x0000000000100000                __config_flash_size = 0x100000
                0x000000000002f000                __config_ro_size = 0x2f000
                0x0000000000040000                __config_ec_protected_storage_size = 0x40000
                0x000000000002f000                __config_rw_size = 0x2f000
                0x0000000000040000                __config_ec_writable_storage_size = 0x40000
                0x0000000000000000                ASSERT ((LENGTH (FLASH) >= __flash_used), No room left in the flash)

.igot.plt       0x00000000001169dc        0x0 load address 0x000000000010189c
 .igot.plt      0x00000000001169dc        0x0 build/hx20/RO/baseboard/fwk/baseboard_host_commands.o

/DISCARD/
 *(.ARM.*)
OUTPUT(build/hx20/RO/ec.RO.elf elf32-littlearm)
LOAD linker stubs

.debug_info     0x0000000000000000    0x71ae2
 .debug_info    0x0000000000000000      0x746 build/hx20/RO/baseboard/fwk/baseboard_host_commands.o
 .debug_info    0x0000000000000746     0x19b9 build/hx20/RO/baseboard/fwk/battery.o
 .debug_info    0x00000000000020ff      0xefc build/hx20/RO/baseboard/fwk/diagnostics.o
 .debug_info    0x0000000000002ffb     0x10a1 build/hx20/RO/baseboard/fwk/fan.o
 .debug_info    0x000000000000409c      0xb7e build/hx20/RO/baseboard/fwk/flash_storage.o
 .debug_info    0x0000000000004c1a     0x1b7e build/hx20/RO/baseboard/fwk/ps2mouse.o
 .debug_info    0x0000000000006798     0x3eba build/hx20/RO/board/hx20/board.o
 .debug_info    0x000000000000a652      0xbd9 build/hx20/RO/board/hx20/cpu_power.o
 .debug_info    0x000000000000b22b     0x5ee4 build/hx20/RO/board/hx20/cypress5525.o
 .debug_info    0x000000000001110f     0x164a build/hx20/RO/board/hx20/host_command_customization.o
 .debug_info    0x0000000000012759      0xfd6 build/hx20/RO/board/hx20/i2c_hid_mediakeys.o
 .debug_info    0x000000000001372f     0x1663 build/hx20/RO/board/hx20/keyboard_customization.o
 .debug_info    0x0000000000014d92     0x118b build/hx20/RO/board/hx20/led.o
 .debug_info    0x0000000000015f1d      0x7ac build/hx20/RO/board/hx20/peci_customization.o
 .debug_info    0x00000000000166c9     0x1729 build/hx20/RO/board/hx20/power_button_x86.o
 .debug_info    0x0000000000017df2     0x21bd build/hx20/RO/board/hx20/power_sequence.o
 .debug_info    0x0000000000019faf     0x13b1 build/hx20/RO/board/hx20/ucsi.o
 .debug_info    0x000000000001b360      0xa27 build/hx20/RO/chip/mchp/adc.o
 .debug_info    0x000000000001bd87      0x57b build/hx20/RO/chip/mchp/clock.o
 .debug_info    0x000000000001c302      0xaf0 build/hx20/RO/chip/mchp/dma.o
 .debug_info    0x000000000001cdf2     0x1bf1 build/hx20/RO/chip/mchp/espi.o
 .debug_info    0x000000000001e9e3      0xb71 build/hx20/RO/chip/mchp/flash.o
 .debug_info    0x000000000001f554      0xed9 build/hx20/RO/chip/mchp/gpio.o
 .debug_info    0x000000000002042d      0x4ca build/hx20/RO/chip/mchp/hwtimer.o
 .debug_info    0x00000000000208f7     0x21dd build/hx20/RO/chip/mchp/i2c.o
 .debug_info    0x0000000000022ad4      0x701 build/hx20/RO/chip/mchp/keyboard_raw.o
 .debug_info    0x00000000000231d5     0x1885 build/hx20/RO/chip/mchp/lpc.o
 .debug_info    0x0000000000024a5a      0xb93 build/hx20/RO/chip/mchp/peci.o
 .debug_info    0x00000000000255ed      0x3c0 build/hx20/RO/chip/mchp/port80.o
 .debug_info    0x00000000000259ad      0x939 build/hx20/RO/chip/mchp/pwm.o
 .debug_info    0x00000000000262e6      0xec6 build/hx20/RO/chip/mchp/qmspi.o
 .debug_info    0x00000000000271ac      0xa08 build/hx20/RO/chip/mchp/spi.o
 .debug_info    0x0000000000027bb4      0xe3b build/hx20/RO/chip/mchp/system.o
 .debug_info    0x00000000000289ef      0x90c build/hx20/RO/chip/mchp/uart.o
 .debug_info    0x00000000000292fb      0x576 build/hx20/RO/chip/mchp/watchdog.o
 .debug_info    0x0000000000029871      0xdcb build/hx20/RO/common/acpi.o
 .debug_info    0x000000000002a63c      0xadc build/hx20/RO/common/adc.o
 .debug_info    0x000000000002b118     0x185b build/hx20/RO/common/battery.o
 .debug_info    0x000000000002c973     0x256c build/hx20/RO/common/charge_manager.o
 .debug_info    0x000000000002eedf     0x3880 build/hx20/RO/common/charge_state_v2.o
 .debug_info    0x000000000003275f     0x249f build/hx20/RO/common/charger.o
 .debug_info    0x0000000000034bfe      0x789 build/hx20/RO/common/chipset.o
 .debug_info    0x0000000000035387     0x14f2 build/hx20/RO/common/console.o
 .debug_info    0x0000000000036879      0x8b4 build/hx20/RO/common/console_output.o
 .debug_info    0x000000000003712d     0x117f build/hx20/RO/common/dptf.o
 .debug_info    0x00000000000382ac      0x80b build/hx20/RO/common/ec_features.o
 .debug_info    0x0000000000038ab7      0x3da build/hx20/RO/common/espi.o
 .debug_info    0x0000000000038e91      0x2a2 build/hx20/RO/common/extpower_common.o
 .debug_info    0x0000000000039133      0x5b6 build/hx20/RO/common/extpower_gpio.o
 .debug_info    0x00000000000396e9     0x2282 build/hx20/RO/common/fan.o
 .debug_info    0x000000000003b96b     0x1ab8 build/hx20/RO/common/flash.o
 .debug_info    0x000000000003d423      0x46a build/hx20/RO/common/fmap.o
 .debug_info    0x000000000003d88d      0xde7 build/hx20/RO/common/gpio.o
 .debug_info    0x000000000003e674      0xfed build/hx20/RO/common/gpio_commands.o
 .debug_info    0x000000000003f661      0xbd8 build/hx20/RO/common/hooks.o
 .debug_info    0x0000000000040239     0x1b1e build/hx20/RO/common/host_command.o
 .debug_info    0x0000000000041d57     0x2421 build/hx20/RO/common/host_event_commands.o
 .debug_info    0x0000000000044178     0x42aa build/hx20/RO/common/i2c_master.o
 .debug_info    0x0000000000048422     0x3632 build/hx20/RO/common/keyboard_8042.o
 .debug_info    0x000000000004ba54      0x62b build/hx20/RO/common/keyboard_8042_sharedlib.o
 .debug_info    0x000000000004c07f      0xdbf build/hx20/RO/common/keyboard_backlight.o
 .debug_info    0x000000000004ce3e     0x1e86 build/hx20/RO/common/keyboard_scan.o
 .debug_info    0x000000000004ecc4      0xd62 build/hx20/RO/common/keyboard_vivaldi.o
 .debug_info    0x000000000004fa26      0x987 build/hx20/RO/common/led_common.o
 .debug_info    0x00000000000503ad      0xc9d build/hx20/RO/common/led_pwm.o
 .debug_info    0x000000000005104a      0xe44 build/hx20/RO/common/lid_switch.o
 .debug_info    0x0000000000051e8e      0x5d4 build/hx20/RO/common/main.o
 .debug_info    0x0000000000052462      0x980 build/hx20/RO/common/memory_commands.o
 .debug_info    0x0000000000052de2     0x12be build/hx20/RO/common/panic_output.o
 .debug_info    0x00000000000540a0      0xb8f build/hx20/RO/common/peci.o
 .debug_info    0x0000000000054c2f      0xe4d build/hx20/RO/common/port80.o
 .debug_info    0x0000000000055a7c      0xf07 build/hx20/RO/common/power_button.o
 .debug_info    0x0000000000056983      0xc05 build/hx20/RO/common/printf.o
 .debug_info    0x0000000000057588     0x100e build/hx20/RO/common/pwm.o
 .debug_info    0x0000000000058596      0xff0 build/hx20/RO/common/queue.o
 .debug_info    0x0000000000059586      0x73d build/hx20/RO/common/shared_mem.o
 .debug_info    0x0000000000059cc3      0x98e build/hx20/RO/common/spi_commands.o
 .debug_info    0x000000000005a651     0x1c53 build/hx20/RO/common/spi_flash.o
 .debug_info    0x000000000005c2a4      0x5d3 build/hx20/RO/common/spi_flash_reg.o
 .debug_info    0x000000000005c877      0x992 build/hx20/RO/common/switch.o
 .debug_info    0x000000000005d209     0x2f8e build/hx20/RO/common/system.o
 .debug_info    0x0000000000060197      0xd83 build/hx20/RO/common/temp_sensor.o
 .debug_info    0x0000000000060f1a     0x15bc build/hx20/RO/common/thermal.o
 .debug_info    0x00000000000624d6      0xaf5 build/hx20/RO/common/throttle_ap.o
 .debug_info    0x0000000000062fcb     0x13ab build/hx20/RO/common/timer.o
 .debug_info    0x0000000000064376      0xec1 build/hx20/RO/common/uart_buffering.o
 .debug_info    0x0000000000065237      0x807 build/hx20/RO/common/uptime.o
 .debug_info    0x0000000000065a3e     0x1488 build/hx20/RO/common/util.o
 .debug_info    0x0000000000066ec6      0x558 build/hx20/RO/common/version.o
 .debug_info    0x000000000006741e      0x979 build/hx20/RO/common/vstore.o
 .debug_info    0x0000000000067d97       0xea build/hx20/RO/core/cortex-m/cpu.o
 .debug_info    0x0000000000067e81       0x24 build/hx20/RO/core/cortex-m/init.o
 .debug_info    0x0000000000067ea5     0x1069 build/hx20/RO/core/cortex-m/panic.o
 .debug_info    0x0000000000068f0e       0x24 build/hx20/RO/core/cortex-m/switch.o
 .debug_info    0x0000000000068f32     0x1ca3 build/hx20/RO/core/cortex-m/task.o
 .debug_info    0x000000000006abd5       0x25 build/hx20/RO/core/cortex-m/uldivmod.o
 .debug_info    0x000000000006abfa      0x2b5 build/hx20/RO/core/cortex-m/vecttable.o
 .debug_info    0x000000000006aeaf      0x1e1 build/hx20/RO/core/cortex-m/watchdog.o
 .debug_info    0x000000000006b090     0x1b1b build/hx20/RO/driver/battery/smart.o
 .debug_info    0x000000000006cbab     0x1aa5 build/hx20/RO/driver/charger/isl9241.o
 .debug_info    0x000000000006e650      0xb02 build/hx20/RO/driver/temp_sensor/f75303.o
 .debug_info    0x000000000006f152     0x21af build/hx20/RO/power/common.o
 .debug_info    0x0000000000071301      0x7e1 build/hx20/RO/power/host_sleep.o

.debug_abbrev   0x0000000000000000    0x15c17
 .debug_abbrev  0x0000000000000000      0x166 build/hx20/RO/baseboard/fwk/baseboard_host_commands.o
 .debug_abbrev  0x0000000000000166      0x426 build/hx20/RO/baseboard/fwk/battery.o
 .debug_abbrev  0x000000000000058c      0x313 build/hx20/RO/baseboard/fwk/diagnostics.o
 .debug_abbrev  0x000000000000089f      0x3ec build/hx20/RO/baseboard/fwk/fan.o
 .debug_abbrev  0x0000000000000c8b      0x2b0 build/hx20/RO/baseboard/fwk/flash_storage.o
 .debug_abbrev  0x0000000000000f3b      0x4ab build/hx20/RO/baseboard/fwk/ps2mouse.o
 .debug_abbrev  0x00000000000013e6      0x5d6 build/hx20/RO/board/hx20/board.o
 .debug_abbrev  0x00000000000019bc      0x250 build/hx20/RO/board/hx20/cpu_power.o
 .debug_abbrev  0x0000000000001c0c      0x6e2 build/hx20/RO/board/hx20/cypress5525.o
 .debug_abbrev  0x00000000000022ee      0x3c3 build/hx20/RO/board/hx20/host_command_customization.o
 .debug_abbrev  0x00000000000026b1      0x34d build/hx20/RO/board/hx20/i2c_hid_mediakeys.o
 .debug_abbrev  0x00000000000029fe      0x4aa build/hx20/RO/board/hx20/keyboard_customization.o
 .debug_abbrev  0x0000000000002ea8      0x3f6 build/hx20/RO/board/hx20/led.o
 .debug_abbrev  0x000000000000329e      0x202 build/hx20/RO/board/hx20/peci_customization.o
 .debug_abbrev  0x00000000000034a0      0x4f2 build/hx20/RO/board/hx20/power_button_x86.o
 .debug_abbrev  0x0000000000003992      0x4a0 build/hx20/RO/board/hx20/power_sequence.o
 .debug_abbrev  0x0000000000003e32      0x389 build/hx20/RO/board/hx20/ucsi.o
 .debug_abbrev  0x00000000000041bb      0x2f2 build/hx20/RO/chip/mchp/adc.o
 .debug_abbrev  0x00000000000044ad      0x1f7 build/hx20/RO/chip/mchp/clock.o
 .debug_abbrev  0x00000000000046a4      0x389 build/hx20/RO/chip/mchp/dma.o
 .debug_abbrev  0x0000000000004a2d      0x4a2 build/hx20/RO/chip/mchp/espi.o
 .debug_abbrev  0x0000000000004ecf      0x295 build/hx20/RO/chip/mchp/flash.o
 .debug_abbrev  0x0000000000005164      0x33b build/hx20/RO/chip/mchp/gpio.o
 .debug_abbrev  0x000000000000549f      0x243 build/hx20/RO/chip/mchp/hwtimer.o
 .debug_abbrev  0x00000000000056e2      0x5cc build/hx20/RO/chip/mchp/i2c.o
 .debug_abbrev  0x0000000000005cae      0x269 build/hx20/RO/chip/mchp/keyboard_raw.o
 .debug_abbrev  0x0000000000005f17      0x51e build/hx20/RO/chip/mchp/lpc.o
 .debug_abbrev  0x0000000000006435      0x320 build/hx20/RO/chip/mchp/peci.o
 .debug_abbrev  0x0000000000006755      0x137 build/hx20/RO/chip/mchp/port80.o
 .debug_abbrev  0x000000000000688c      0x332 build/hx20/RO/chip/mchp/pwm.o
 .debug_abbrev  0x0000000000006bbe      0x3a1 build/hx20/RO/chip/mchp/qmspi.o
 .debug_abbrev  0x0000000000006f5f      0x2d6 build/hx20/RO/chip/mchp/spi.o
 .debug_abbrev  0x0000000000007235      0x4c7 build/hx20/RO/chip/mchp/system.o
 .debug_abbrev  0x00000000000076fc      0x2e8 build/hx20/RO/chip/mchp/uart.o
 .debug_abbrev  0x00000000000079e4      0x1b9 build/hx20/RO/chip/mchp/watchdog.o
 .debug_abbrev  0x0000000000007b9d      0x384 build/hx20/RO/common/acpi.o
 .debug_abbrev  0x0000000000007f21      0x283 build/hx20/RO/common/adc.o
 .debug_abbrev  0x00000000000081a4      0x52c build/hx20/RO/common/battery.o
 .debug_abbrev  0x00000000000086d0      0x6a5 build/hx20/RO/common/charge_manager.o
 .debug_abbrev  0x0000000000008d75      0x6a5 build/hx20/RO/common/charge_state_v2.o
 .debug_abbrev  0x000000000000941a      0x4b1 build/hx20/RO/common/charger.o
 .debug_abbrev  0x00000000000098cb      0x18e build/hx20/RO/common/chipset.o
 .debug_abbrev  0x0000000000009a59      0x465 build/hx20/RO/common/console.o
 .debug_abbrev  0x0000000000009ebe      0x253 build/hx20/RO/common/console_output.o
 .debug_abbrev  0x000000000000a111      0x397 build/hx20/RO/common/dptf.o
 .debug_abbrev  0x000000000000a4a8      0x208 build/hx20/RO/common/ec_features.o
 .debug_abbrev  0x000000000000a6b0      0x111 build/hx20/RO/common/espi.o
 .debug_abbrev  0x000000000000a7c1      0x11e build/hx20/RO/common/extpower_common.o
 .debug_abbrev  0x000000000000a8df      0x1f0 build/hx20/RO/common/extpower_gpio.o
 .debug_abbrev  0x000000000000aacf      0x5bc build/hx20/RO/common/fan.o
 .debug_abbrev  0x000000000000b08b      0x403 build/hx20/RO/common/flash.o
 .debug_abbrev  0x000000000000b48e       0xf5 build/hx20/RO/common/fmap.o
 .debug_abbrev  0x000000000000b583      0x301 build/hx20/RO/common/gpio.o
 .debug_abbrev  0x000000000000b884      0x3b4 build/hx20/RO/common/gpio_commands.o
 .debug_abbrev  0x000000000000bc38      0x2f3 build/hx20/RO/common/hooks.o
 .debug_abbrev  0x000000000000bf2b      0x5ad build/hx20/RO/common/host_command.o
 .debug_abbrev  0x000000000000c4d8      0x600 build/hx20/RO/common/host_event_commands.o
 .debug_abbrev  0x000000000000cad8      0x6f4 build/hx20/RO/common/i2c_master.o
 .debug_abbrev  0x000000000000d1cc      0x5fb build/hx20/RO/common/keyboard_8042.o
 .debug_abbrev  0x000000000000d7c7      0x122 build/hx20/RO/common/keyboard_8042_sharedlib.o
 .debug_abbrev  0x000000000000d8e9      0x3d2 build/hx20/RO/common/keyboard_backlight.o
 .debug_abbrev  0x000000000000dcbb      0x5d3 build/hx20/RO/common/keyboard_scan.o
 .debug_abbrev  0x000000000000e28e      0x2a1 build/hx20/RO/common/keyboard_vivaldi.o
 .debug_abbrev  0x000000000000e52f      0x2c4 build/hx20/RO/common/led_common.o
 .debug_abbrev  0x000000000000e7f3      0x330 build/hx20/RO/common/led_pwm.o
 .debug_abbrev  0x000000000000eb23      0x2d7 build/hx20/RO/common/lid_switch.o
 .debug_abbrev  0x000000000000edfa      0x1b4 build/hx20/RO/common/main.o
 .debug_abbrev  0x000000000000efae      0x250 build/hx20/RO/common/memory_commands.o
 .debug_abbrev  0x000000000000f1fe      0x4ba build/hx20/RO/common/panic_output.o
 .debug_abbrev  0x000000000000f6b8      0x283 build/hx20/RO/common/peci.o
 .debug_abbrev  0x000000000000f93b      0x35c build/hx20/RO/common/port80.o
 .debug_abbrev  0x000000000000fc97      0x3a2 build/hx20/RO/common/power_button.o
 .debug_abbrev  0x0000000000010039      0x42c build/hx20/RO/common/printf.o
 .debug_abbrev  0x0000000000010465      0x30e build/hx20/RO/common/pwm.o
 .debug_abbrev  0x0000000000010773      0x2e0 build/hx20/RO/common/queue.o
 .debug_abbrev  0x0000000000010a53      0x20d build/hx20/RO/common/shared_mem.o
 .debug_abbrev  0x0000000000010c60      0x27e build/hx20/RO/common/spi_commands.o
 .debug_abbrev  0x0000000000010ede      0x54e build/hx20/RO/common/spi_flash.o
 .debug_abbrev  0x000000000001142c      0x16f build/hx20/RO/common/spi_flash_reg.o
 .debug_abbrev  0x000000000001159b      0x28c build/hx20/RO/common/switch.o
 .debug_abbrev  0x0000000000011827      0x66e build/hx20/RO/common/system.o
 .debug_abbrev  0x0000000000011e95      0x28a build/hx20/RO/common/temp_sensor.o
 .debug_abbrev  0x000000000001211f      0x403 build/hx20/RO/common/thermal.o
 .debug_abbrev  0x0000000000012522      0x297 build/hx20/RO/common/throttle_ap.o
 .debug_abbrev  0x00000000000127b9      0x484 build/hx20/RO/common/timer.o
 .debug_abbrev  0x0000000000012c3d      0x4ad build/hx20/RO/common/uart_buffering.o
 .debug_abbrev  0x00000000000130ea      0x265 build/hx20/RO/common/uptime.o
 .debug_abbrev  0x000000000001334f      0x381 build/hx20/RO/common/util.o
 .debug_abbrev  0x00000000000136d0      0x1e5 build/hx20/RO/common/version.o
 .debug_abbrev  0x00000000000138b5      0x203 build/hx20/RO/common/vstore.o
 .debug_abbrev  0x0000000000013ab8       0x80 build/hx20/RO/core/cortex-m/cpu.o
 .debug_abbrev  0x0000000000013b38       0x14 build/hx20/RO/core/cortex-m/init.o
 .debug_abbrev  0x0000000000013b4c      0x42f build/hx20/RO/core/cortex-m/panic.o
 .debug_abbrev  0x0000000000013f7b       0x14 build/hx20/RO/core/cortex-m/switch.o
 .debug_abbrev  0x0000000000013f8f      0x601 build/hx20/RO/core/cortex-m/task.o
 .debug_abbrev  0x0000000000014590       0x14 build/hx20/RO/core/cortex-m/uldivmod.o
 .debug_abbrev  0x00000000000145a4       0xd0 build/hx20/RO/core/cortex-m/vecttable.o
 .debug_abbrev  0x0000000000014674      0x121 build/hx20/RO/core/cortex-m/watchdog.o
 .debug_abbrev  0x0000000000014795      0x51b build/hx20/RO/driver/battery/smart.o
 .debug_abbrev  0x0000000000014cb0      0x437 build/hx20/RO/driver/charger/isl9241.o
 .debug_abbrev  0x00000000000150e7      0x284 build/hx20/RO/driver/temp_sensor/f75303.o
 .debug_abbrev  0x000000000001536b      0x631 build/hx20/RO/power/common.o
 .debug_abbrev  0x000000000001599c      0x27b build/hx20/RO/power/host_sleep.o

.debug_loclists
                0x0000000000000000    0x1b790
 .debug_loclists
                0x0000000000000000       0x35 build/hx20/RO/baseboard/fwk/baseboard_host_commands.o
 .debug_loclists
                0x0000000000000035      0x38b build/hx20/RO/baseboard/fwk/battery.o
 .debug_loclists
                0x00000000000003c0      0x1e3 build/hx20/RO/baseboard/fwk/diagnostics.o
 .debug_loclists
                0x00000000000005a3      0x54c build/hx20/RO/baseboard/fwk/fan.o
 .debug_loclists
                0x0000000000000aef      0x151 build/hx20/RO/baseboard/fwk/flash_storage.o
 .debug_loclists
                0x0000000000000c40      0x78e build/hx20/RO/baseboard/fwk/ps2mouse.o
 .debug_loclists
                0x00000000000013ce      0x47f build/hx20/RO/board/hx20/board.o
 .debug_loclists
                0x000000000000184d      0x26b build/hx20/RO/board/hx20/cpu_power.o
 .debug_loclists
                0x0000000000001ab8     0x1eb7 build/hx20/RO/board/hx20/cypress5525.o
 .debug_loclists
                0x000000000000396f      0x294 build/hx20/RO/board/hx20/host_command_customization.o
 .debug_loclists
                0x0000000000003c03      0x65d build/hx20/RO/board/hx20/i2c_hid_mediakeys.o
 .debug_loclists
                0x0000000000004260      0x549 build/hx20/RO/board/hx20/keyboard_customization.o
 .debug_loclists
                0x00000000000047a9      0x4fe build/hx20/RO/board/hx20/led.o
 .debug_loclists
                0x0000000000004ca7      0x28f build/hx20/RO/board/hx20/peci_customization.o
 .debug_loclists
                0x0000000000004f36      0x32a build/hx20/RO/board/hx20/power_button_x86.o
 .debug_loclists
                0x0000000000005260      0x33c build/hx20/RO/board/hx20/power_sequence.o
 .debug_loclists
                0x000000000000559c      0x296 build/hx20/RO/board/hx20/ucsi.o
 .debug_loclists
                0x0000000000005832      0x103 build/hx20/RO/chip/mchp/adc.o
 .debug_loclists
                0x0000000000005935       0xce build/hx20/RO/chip/mchp/clock.o
 .debug_loclists
                0x0000000000005a03      0x685 build/hx20/RO/chip/mchp/dma.o
 .debug_loclists
                0x0000000000006088      0x86a build/hx20/RO/chip/mchp/espi.o
 .debug_loclists
                0x00000000000068f2      0x2b7 build/hx20/RO/chip/mchp/flash.o
 .debug_loclists
                0x0000000000006ba9      0x45a build/hx20/RO/chip/mchp/gpio.o
 .debug_loclists
                0x0000000000007003       0xa2 build/hx20/RO/chip/mchp/hwtimer.o
 .debug_loclists
                0x00000000000070a5      0xc31 build/hx20/RO/chip/mchp/i2c.o
 .debug_loclists
                0x0000000000007cd6       0x9e build/hx20/RO/chip/mchp/keyboard_raw.o
 .debug_loclists
                0x0000000000007d74      0x22a build/hx20/RO/chip/mchp/lpc.o
 .debug_loclists
                0x0000000000007f9e      0x456 build/hx20/RO/chip/mchp/peci.o
 .debug_loclists
                0x00000000000083f4       0x17 build/hx20/RO/chip/mchp/port80.o
 .debug_loclists
                0x000000000000840b      0x491 build/hx20/RO/chip/mchp/pwm.o
 .debug_loclists
                0x000000000000889c      0x735 build/hx20/RO/chip/mchp/qmspi.o
 .debug_loclists
                0x0000000000008fd1      0x24f build/hx20/RO/chip/mchp/spi.o
 .debug_loclists
                0x0000000000009220      0x2af build/hx20/RO/chip/mchp/system.o
 .debug_loclists
                0x00000000000094cf       0x5f build/hx20/RO/chip/mchp/uart.o
 .debug_loclists
                0x000000000000952e       0x7f build/hx20/RO/chip/mchp/watchdog.o
 .debug_loclists
                0x00000000000095ad      0x57f build/hx20/RO/common/acpi.o
 .debug_loclists
                0x0000000000009b2c      0x1ad build/hx20/RO/common/adc.o
 .debug_loclists
                0x0000000000009cd9      0x3ea build/hx20/RO/common/battery.o
 .debug_loclists
                0x000000000000a0c3      0xcb5 build/hx20/RO/common/charge_manager.o
 .debug_loclists
                0x000000000000ad78      0xb96 build/hx20/RO/common/charge_state_v2.o
 .debug_loclists
                0x000000000000b90e      0xb73 build/hx20/RO/common/charger.o
 .debug_loclists
                0x000000000000c481       0x68 build/hx20/RO/common/chipset.o
 .debug_loclists
                0x000000000000c4e9      0x681 build/hx20/RO/common/console.o
 .debug_loclists
                0x000000000000cb6a      0x172 build/hx20/RO/common/console_output.o
 .debug_loclists
                0x000000000000ccdc      0x3cb build/hx20/RO/common/dptf.o
 .debug_loclists
                0x000000000000d0a7       0x3a build/hx20/RO/common/ec_features.o
 .debug_loclists
                0x000000000000d0e1       0x50 build/hx20/RO/common/espi.o
 .debug_loclists
                0x000000000000d131       0x45 build/hx20/RO/common/extpower_common.o
 .debug_loclists
                0x000000000000d176       0x52 build/hx20/RO/common/extpower_gpio.o
 .debug_loclists
                0x000000000000d1c8      0x9e0 build/hx20/RO/common/fan.o
 .debug_loclists
                0x000000000000dba8      0x6ec build/hx20/RO/common/flash.o
 .debug_loclists
                0x000000000000e294      0x317 build/hx20/RO/common/gpio.o
 .debug_loclists
                0x000000000000e5ab      0x320 build/hx20/RO/common/gpio_commands.o
 .debug_loclists
                0x000000000000e8cb      0x1fa build/hx20/RO/common/hooks.o
 .debug_loclists
                0x000000000000eac5      0x82d build/hx20/RO/common/host_command.o
 .debug_loclists
                0x000000000000f2f2      0xa28 build/hx20/RO/common/host_event_commands.o
 .debug_loclists
                0x000000000000fd1a     0x1bb6 build/hx20/RO/common/i2c_master.o
 .debug_loclists
                0x00000000000118d0      0xfe6 build/hx20/RO/common/keyboard_8042.o
 .debug_loclists
                0x00000000000128b6       0x34 build/hx20/RO/common/keyboard_8042_sharedlib.o
 .debug_loclists
                0x00000000000128ea      0x138 build/hx20/RO/common/keyboard_backlight.o
 .debug_loclists
                0x0000000000012a22      0x790 build/hx20/RO/common/keyboard_scan.o
 .debug_loclists
                0x00000000000131b2       0x8e build/hx20/RO/common/keyboard_vivaldi.o
 .debug_loclists
                0x0000000000013240      0x112 build/hx20/RO/common/led_common.o
 .debug_loclists
                0x0000000000013352      0x1c3 build/hx20/RO/common/led_pwm.o
 .debug_loclists
                0x0000000000013515       0xf8 build/hx20/RO/common/lid_switch.o
 .debug_loclists
                0x000000000001360d       0x18 build/hx20/RO/common/main.o
 .debug_loclists
                0x0000000000013625      0x2e2 build/hx20/RO/common/memory_commands.o
 .debug_loclists
                0x0000000000013907      0x291 build/hx20/RO/common/panic_output.o
 .debug_loclists
                0x0000000000013b98      0x20b build/hx20/RO/common/peci.o
 .debug_loclists
                0x0000000000013da3      0x327 build/hx20/RO/common/port80.o
 .debug_loclists
                0x00000000000140ca      0x138 build/hx20/RO/common/power_button.o
 .debug_loclists
                0x0000000000014202      0x9e5 build/hx20/RO/common/printf.o
 .debug_loclists
                0x0000000000014be7      0x3bb build/hx20/RO/common/pwm.o
 .debug_loclists
                0x0000000000014fa2      0x81b build/hx20/RO/common/queue.o
 .debug_loclists
                0x00000000000157bd       0x62 build/hx20/RO/common/shared_mem.o
 .debug_loclists
                0x000000000001581f      0x173 build/hx20/RO/common/spi_commands.o
 .debug_loclists
                0x0000000000015992      0x831 build/hx20/RO/common/spi_flash.o
 .debug_loclists
                0x00000000000161c3      0x25c build/hx20/RO/common/spi_flash_reg.o
 .debug_loclists
                0x000000000001641f       0x7c build/hx20/RO/common/switch.o
 .debug_loclists
                0x000000000001649b      0x98d build/hx20/RO/common/system.o
 .debug_loclists
                0x0000000000016e28      0x261 build/hx20/RO/common/temp_sensor.o
 .debug_loclists
                0x0000000000017089      0x3e9 build/hx20/RO/common/thermal.o
 .debug_loclists
                0x0000000000017472      0x151 build/hx20/RO/common/throttle_ap.o
 .debug_loclists
                0x00000000000175c3      0x4aa build/hx20/RO/common/timer.o
 .debug_loclists
                0x0000000000017a6d      0x392 build/hx20/RO/common/uart_buffering.o
 .debug_loclists
                0x0000000000017dff       0x47 build/hx20/RO/common/uptime.o
 .debug_loclists
                0x0000000000017e46     0x1164 build/hx20/RO/common/util.o
 .debug_loclists
                0x0000000000018faa       0xa0 build/hx20/RO/common/version.o
 .debug_loclists
                0x000000000001904a      0x127 build/hx20/RO/common/vstore.o
 .debug_loclists
                0x0000000000019171      0x54c build/hx20/RO/core/cortex-m/panic.o
 .debug_loclists
                0x00000000000196bd      0x7ff build/hx20/RO/core/cortex-m/task.o
 .debug_loclists
                0x0000000000019ebc       0x92 build/hx20/RO/core/cortex-m/watchdog.o
 .debug_loclists
                0x0000000000019f4e      0x76e build/hx20/RO/driver/battery/smart.o
 .debug_loclists
                0x000000000001a6bc      0x7a3 build/hx20/RO/driver/charger/isl9241.o
 .debug_loclists
                0x000000000001ae5f      0x167 build/hx20/RO/driver/temp_sensor/f75303.o
 .debug_loclists
                0x000000000001afc6      0x762 build/hx20/RO/power/common.o
 .debug_loclists
                0x000000000001b728       0x68 build/hx20/RO/power/host_sleep.o

.debug_aranges  0x0000000000000000     0x3308
 .debug_aranges
                0x0000000000000000       0x20 build/hx20/RO/baseboard/fwk/baseboard_host_commands.o
 .debug_aranges
                0x0000000000000020       0x60 build/hx20/RO/baseboard/fwk/battery.o
 .debug_aranges
                0x0000000000000080       0x68 build/hx20/RO/baseboard/fwk/diagnostics.o
 .debug_aranges
                0x00000000000000e8       0x88 build/hx20/RO/baseboard/fwk/fan.o
 .debug_aranges
                0x0000000000000170       0x50 build/hx20/RO/baseboard/fwk/flash_storage.o
 .debug_aranges
                0x00000000000001c0       0x90 build/hx20/RO/baseboard/fwk/ps2mouse.o
 .debug_aranges
                0x0000000000000250      0x170 build/hx20/RO/board/hx20/board.o
 .debug_aranges
                0x00000000000003c0       0x38 build/hx20/RO/board/hx20/cpu_power.o
 .debug_aranges
                0x00000000000003f8      0x250 build/hx20/RO/board/hx20/cypress5525.o
 .debug_aranges
                0x0000000000000648       0x70 build/hx20/RO/board/hx20/host_command_customization.o
 .debug_aranges
                0x00000000000006b8       0x58 build/hx20/RO/board/hx20/i2c_hid_mediakeys.o
 .debug_aranges
                0x0000000000000710       0xd0 build/hx20/RO/board/hx20/keyboard_customization.o
 .debug_aranges
                0x00000000000007e0       0x60 build/hx20/RO/board/hx20/led.o
 .debug_aranges
                0x0000000000000840       0x50 build/hx20/RO/board/hx20/peci_customization.o
 .debug_aranges
                0x0000000000000890       0x90 build/hx20/RO/board/hx20/power_button_x86.o
 .debug_aranges
                0x0000000000000920       0xb0 build/hx20/RO/board/hx20/power_sequence.o
 .debug_aranges
                0x00000000000009d0       0x50 build/hx20/RO/board/hx20/ucsi.o
 .debug_aranges
                0x0000000000000a20       0x48 build/hx20/RO/chip/mchp/adc.o
 .debug_aranges
                0x0000000000000a68       0x48 build/hx20/RO/chip/mchp/clock.o
 .debug_aranges
                0x0000000000000ab0       0xc8 build/hx20/RO/chip/mchp/dma.o
 .debug_aranges
                0x0000000000000b78      0x180 build/hx20/RO/chip/mchp/espi.o
 .debug_aranges
                0x0000000000000cf8       0x78 build/hx20/RO/chip/mchp/flash.o
 .debug_aranges
                0x0000000000000d70       0xd8 build/hx20/RO/chip/mchp/gpio.o
 .debug_aranges
                0x0000000000000e48       0x70 build/hx20/RO/chip/mchp/hwtimer.o
 .debug_aranges
                0x0000000000000eb8       0xf8 build/hx20/RO/chip/mchp/i2c.o
 .debug_aranges
                0x0000000000000fb0       0x58 build/hx20/RO/chip/mchp/keyboard_raw.o
 .debug_aranges
                0x0000000000001008      0x158 build/hx20/RO/chip/mchp/lpc.o
 .debug_aranges
                0x0000000000001160       0x58 build/hx20/RO/chip/mchp/peci.o
 .debug_aranges
                0x00000000000011b8       0x28 build/hx20/RO/chip/mchp/port80.o
 .debug_aranges
                0x00000000000011e0       0x70 build/hx20/RO/chip/mchp/pwm.o
 .debug_aranges
                0x0000000000001250       0x50 build/hx20/RO/chip/mchp/qmspi.o
 .debug_aranges
                0x00000000000012a0       0x48 build/hx20/RO/chip/mchp/spi.o
 .debug_aranges
                0x00000000000012e8       0xb8 build/hx20/RO/chip/mchp/system.o
 .debug_aranges
                0x00000000000013a0       0x88 build/hx20/RO/chip/mchp/uart.o
 .debug_aranges
                0x0000000000001428       0x38 build/hx20/RO/chip/mchp/watchdog.o
 .debug_aranges
                0x0000000000001460       0x38 build/hx20/RO/common/acpi.o
 .debug_aranges
                0x0000000000001498       0x30 build/hx20/RO/common/adc.o
 .debug_aranges
                0x00000000000014c8       0x90 build/hx20/RO/common/battery.o
 .debug_aranges
                0x0000000000001558      0x128 build/hx20/RO/common/charge_manager.o
 .debug_aranges
                0x0000000000001680      0x100 build/hx20/RO/common/charge_state_v2.o
 .debug_aranges
                0x0000000000001780      0x118 build/hx20/RO/common/charger.o
 .debug_aranges
                0x0000000000001898       0x28 build/hx20/RO/common/chipset.o
 .debug_aranges
                0x00000000000018c0       0x68 build/hx20/RO/common/console.o
 .debug_aranges
                0x0000000000001928       0x40 build/hx20/RO/common/console_output.o
 .debug_aranges
                0x0000000000001968       0x40 build/hx20/RO/common/dptf.o
 .debug_aranges
                0x00000000000019a8       0x40 build/hx20/RO/common/ec_features.o
 .debug_aranges
                0x00000000000019e8       0x28 build/hx20/RO/common/espi.o
 .debug_aranges
                0x0000000000001a10       0x20 build/hx20/RO/common/extpower_common.o
 .debug_aranges
                0x0000000000001a30       0x38 build/hx20/RO/common/extpower_gpio.o
 .debug_aranges
                0x0000000000001a68       0xd8 build/hx20/RO/common/fan.o
 .debug_aranges
                0x0000000000001b40       0x98 build/hx20/RO/common/flash.o
 .debug_aranges
                0x0000000000001bd8       0x18 build/hx20/RO/common/fmap.o
 .debug_aranges
                0x0000000000001bf0       0x88 build/hx20/RO/common/gpio.o
 .debug_aranges
                0x0000000000001c78       0x50 build/hx20/RO/common/gpio_commands.o
 .debug_aranges
                0x0000000000001cc8       0x30 build/hx20/RO/common/hooks.o
 .debug_aranges
                0x0000000000001cf8       0x98 build/hx20/RO/common/host_command.o
 .debug_aranges
                0x0000000000001d90      0x128 build/hx20/RO/common/host_event_commands.o
 .debug_aranges
                0x0000000000001eb8      0x138 build/hx20/RO/common/i2c_master.o
 .debug_aranges
                0x0000000000001ff0       0xf8 build/hx20/RO/common/keyboard_8042.o
 .debug_aranges
                0x00000000000020e8       0x20 build/hx20/RO/common/keyboard_8042_sharedlib.o
 .debug_aranges
                0x0000000000002108       0x80 build/hx20/RO/common/keyboard_backlight.o
 .debug_aranges
                0x0000000000002188       0x98 build/hx20/RO/common/keyboard_scan.o
 .debug_aranges
                0x0000000000002220       0x30 build/hx20/RO/common/keyboard_vivaldi.o
 .debug_aranges
                0x0000000000002250       0x40 build/hx20/RO/common/led_common.o
 .debug_aranges
                0x0000000000002290       0x38 build/hx20/RO/common/led_pwm.o
 .debug_aranges
                0x00000000000022c8       0x70 build/hx20/RO/common/lid_switch.o
 .debug_aranges
                0x0000000000002338       0x20 build/hx20/RO/common/main.o
 .debug_aranges
                0x0000000000002358       0x28 build/hx20/RO/common/memory_commands.o
 .debug_aranges
                0x0000000000002380       0x88 build/hx20/RO/common/panic_output.o
 .debug_aranges
                0x0000000000002408       0x40 build/hx20/RO/common/peci.o
 .debug_aranges
                0x0000000000002448       0x50 build/hx20/RO/common/port80.o
 .debug_aranges
                0x0000000000002498       0x60 build/hx20/RO/common/power_button.o
 .debug_aranges
                0x00000000000024f8       0x38 build/hx20/RO/common/printf.o
 .debug_aranges
                0x0000000000002530       0x50 build/hx20/RO/common/pwm.o
 .debug_aranges
                0x0000000000002580       0xc0 build/hx20/RO/common/queue.o
 .debug_aranges
                0x0000000000002640       0x38 build/hx20/RO/common/shared_mem.o
 .debug_aranges
                0x0000000000002678       0x20 build/hx20/RO/common/spi_commands.o
 .debug_aranges
                0x0000000000002698       0xd0 build/hx20/RO/common/spi_flash.o
 .debug_aranges
                0x0000000000002768       0x28 build/hx20/RO/common/spi_flash_reg.o
 .debug_aranges
                0x0000000000002790       0x38 build/hx20/RO/common/switch.o
 .debug_aranges
                0x00000000000027c8      0x1a8 build/hx20/RO/common/system.o
 .debug_aranges
                0x0000000000002970       0x40 build/hx20/RO/common/temp_sensor.o
 .debug_aranges
                0x00000000000029b0       0x48 build/hx20/RO/common/thermal.o
 .debug_aranges
                0x00000000000029f8       0x38 build/hx20/RO/common/throttle_ap.o
 .debug_aranges
                0x0000000000002a30       0x88 build/hx20/RO/common/timer.o
 .debug_aranges
                0x0000000000002ab8       0xb8 build/hx20/RO/common/uart_buffering.o
 .debug_aranges
                0x0000000000002b70       0x20 build/hx20/RO/common/uptime.o
 .debug_aranges
                0x0000000000002b90      0x140 build/hx20/RO/common/util.o
 .debug_aranges
                0x0000000000002cd0       0x20 build/hx20/RO/common/version.o
 .debug_aranges
                0x0000000000002cf0       0x48 build/hx20/RO/common/vstore.o
 .debug_aranges
                0x0000000000002d38       0x20 build/hx20/RO/core/cortex-m/cpu.o
 .debug_aranges
                0x0000000000002d58       0x20 build/hx20/RO/core/cortex-m/init.o
 .debug_aranges
                0x0000000000002d78       0x68 build/hx20/RO/core/cortex-m/panic.o
 .debug_aranges
                0x0000000000002de0       0x20 build/hx20/RO/core/cortex-m/switch.o
 .debug_aranges
                0x0000000000002e00      0x110 build/hx20/RO/core/cortex-m/task.o
 .debug_aranges
                0x0000000000002f10       0x20 build/hx20/RO/core/cortex-m/uldivmod.o
 .debug_aranges
                0x0000000000002f30       0x28 build/hx20/RO/core/cortex-m/vecttable.o
 .debug_aranges
                0x0000000000002f58       0x20 build/hx20/RO/core/cortex-m/watchdog.o
 .debug_aranges
                0x0000000000002f78      0x100 build/hx20/RO/driver/battery/smart.o
 .debug_aranges
                0x0000000000003078       0xd0 build/hx20/RO/driver/charger/isl9241.o
 .debug_aranges
                0x0000000000003148       0x40 build/hx20/RO/driver/temp_sensor/f75303.o
 .debug_aranges
                0x0000000000003188      0x110 build/hx20/RO/power/common.o
 .debug_aranges
                0x0000000000003298       0x70 build/hx20/RO/power/host_sleep.o

.debug_rnglists
                0x0000000000000000     0x3634
 .debug_rnglists
                0x0000000000000000       0x13 build/hx20/RO/baseboard/fwk/baseboard_host_commands.o
 .debug_rnglists
                0x0000000000000013       0x5e build/hx20/RO/baseboard/fwk/battery.o
 .debug_rnglists
                0x0000000000000071       0x57 build/hx20/RO/baseboard/fwk/diagnostics.o
 .debug_rnglists
                0x00000000000000c8       0xc1 build/hx20/RO/baseboard/fwk/fan.o
 .debug_rnglists
                0x0000000000000189       0x39 build/hx20/RO/baseboard/fwk/flash_storage.o
 .debug_rnglists
                0x00000000000001c2       0xba build/hx20/RO/baseboard/fwk/ps2mouse.o
 .debug_rnglists
                0x000000000000027c      0x174 build/hx20/RO/board/hx20/board.o
 .debug_rnglists
                0x00000000000003f0       0x33 build/hx20/RO/board/hx20/cpu_power.o
 .debug_rnglists
                0x0000000000000423      0x211 build/hx20/RO/board/hx20/cypress5525.o
 .debug_rnglists
                0x0000000000000634       0x5e build/hx20/RO/board/hx20/host_command_customization.o
 .debug_rnglists
                0x0000000000000692       0x82 build/hx20/RO/board/hx20/i2c_hid_mediakeys.o
 .debug_rnglists
                0x0000000000000714       0xa6 build/hx20/RO/board/hx20/keyboard_customization.o
 .debug_rnglists
                0x00000000000007ba       0x6a build/hx20/RO/board/hx20/led.o
 .debug_rnglists
                0x0000000000000824       0x38 build/hx20/RO/board/hx20/peci_customization.o
 .debug_rnglists
                0x000000000000085c       0xc6 build/hx20/RO/board/hx20/power_button_x86.o
 .debug_rnglists
                0x0000000000000922       0xb5 build/hx20/RO/board/hx20/power_sequence.o
 .debug_rnglists
                0x00000000000009d7       0x3b build/hx20/RO/board/hx20/ucsi.o
 .debug_rnglists
                0x0000000000000a12       0x32 build/hx20/RO/chip/mchp/adc.o
 .debug_rnglists
                0x0000000000000a44       0x31 build/hx20/RO/chip/mchp/clock.o
 .debug_rnglists
                0x0000000000000a75       0x91 build/hx20/RO/chip/mchp/dma.o
 .debug_rnglists
                0x0000000000000b06      0x15a build/hx20/RO/chip/mchp/espi.o
 .debug_rnglists
                0x0000000000000c60       0x55 build/hx20/RO/chip/mchp/flash.o
 .debug_rnglists
                0x0000000000000cb5       0x9e build/hx20/RO/chip/mchp/gpio.o
 .debug_rnglists
                0x0000000000000d53       0x4f build/hx20/RO/chip/mchp/hwtimer.o
 .debug_rnglists
                0x0000000000000da2      0x184 build/hx20/RO/chip/mchp/i2c.o
 .debug_rnglists
                0x0000000000000f26       0x49 build/hx20/RO/chip/mchp/keyboard_raw.o
 .debug_rnglists
                0x0000000000000f6f      0x10b build/hx20/RO/chip/mchp/lpc.o
 .debug_rnglists
                0x000000000000107a       0x5c build/hx20/RO/chip/mchp/peci.o
 .debug_rnglists
                0x00000000000010d6       0x19 build/hx20/RO/chip/mchp/port80.o
 .debug_rnglists
                0x00000000000010ef       0x5c build/hx20/RO/chip/mchp/pwm.o
 .debug_rnglists
                0x000000000000114b       0x5d build/hx20/RO/chip/mchp/qmspi.o
 .debug_rnglists
                0x00000000000011a8       0x31 build/hx20/RO/chip/mchp/spi.o
 .debug_rnglists
                0x00000000000011d9       0xa2 build/hx20/RO/chip/mchp/system.o
 .debug_rnglists
                0x000000000000127b       0x62 build/hx20/RO/chip/mchp/uart.o
 .debug_rnglists
                0x00000000000012dd       0x26 build/hx20/RO/chip/mchp/watchdog.o
 .debug_rnglists
                0x0000000000001303       0x40 build/hx20/RO/common/acpi.o
 .debug_rnglists
                0x0000000000001343       0x37 build/hx20/RO/common/adc.o
 .debug_rnglists
                0x000000000000137a       0x9b build/hx20/RO/common/battery.o
 .debug_rnglists
                0x0000000000001415      0x156 build/hx20/RO/common/charge_manager.o
 .debug_rnglists
                0x000000000000156b      0x16e build/hx20/RO/common/charge_state_v2.o
 .debug_rnglists
                0x00000000000016d9       0xf3 build/hx20/RO/common/charger.o
 .debug_rnglists
                0x00000000000017cc       0x19 build/hx20/RO/common/chipset.o
 .debug_rnglists
                0x00000000000017e5      0x123 build/hx20/RO/common/console.o
 .debug_rnglists
                0x0000000000001908       0x38 build/hx20/RO/common/console_output.o
 .debug_rnglists
                0x0000000000001940       0xa2 build/hx20/RO/common/dptf.o
 .debug_rnglists
                0x00000000000019e2       0x2b build/hx20/RO/common/ec_features.o
 .debug_rnglists
                0x0000000000001a0d       0x19 build/hx20/RO/common/espi.o
 .debug_rnglists
                0x0000000000001a26       0x13 build/hx20/RO/common/extpower_common.o
 .debug_rnglists
                0x0000000000001a39       0x25 build/hx20/RO/common/extpower_gpio.o
 .debug_rnglists
                0x0000000000001a5e       0xf1 build/hx20/RO/common/fan.o
 .debug_rnglists
                0x0000000000001b4f       0x99 build/hx20/RO/common/flash.o
 .debug_rnglists
                0x0000000000001be8       0x6e build/hx20/RO/common/gpio.o
 .debug_rnglists
                0x0000000000001c56       0x5f build/hx20/RO/common/gpio_commands.o
 .debug_rnglists
                0x0000000000001cb5       0x30 build/hx20/RO/common/hooks.o
 .debug_rnglists
                0x0000000000001ce5       0xd2 build/hx20/RO/common/host_command.o
 .debug_rnglists
                0x0000000000001db7      0x1a4 build/hx20/RO/common/host_event_commands.o
 .debug_rnglists
                0x0000000000001f5b      0x164 build/hx20/RO/common/i2c_master.o
 .debug_rnglists
                0x00000000000020bf      0x220 build/hx20/RO/common/keyboard_8042.o
 .debug_rnglists
                0x00000000000022df       0x13 build/hx20/RO/common/keyboard_8042_sharedlib.o
 .debug_rnglists
                0x00000000000022f2       0x8b build/hx20/RO/common/keyboard_backlight.o
 .debug_rnglists
                0x000000000000237d      0x132 build/hx20/RO/common/keyboard_scan.o
 .debug_rnglists
                0x00000000000024af       0x20 build/hx20/RO/common/keyboard_vivaldi.o
 .debug_rnglists
                0x00000000000024cf       0x2b build/hx20/RO/common/led_common.o
 .debug_rnglists
                0x00000000000024fa       0x32 build/hx20/RO/common/led_pwm.o
 .debug_rnglists
                0x000000000000252c       0x67 build/hx20/RO/common/lid_switch.o
 .debug_rnglists
                0x0000000000002593       0x14 build/hx20/RO/common/main.o
 .debug_rnglists
                0x00000000000025a7       0x2b build/hx20/RO/common/memory_commands.o
 .debug_rnglists
                0x00000000000025d2       0x87 build/hx20/RO/common/panic_output.o
 .debug_rnglists
                0x0000000000002659       0x2c build/hx20/RO/common/peci.o
 .debug_rnglists
                0x0000000000002685       0x5a build/hx20/RO/common/port80.o
 .debug_rnglists
                0x00000000000026df       0x51 build/hx20/RO/common/power_button.o
 .debug_rnglists
                0x0000000000002730       0x95 build/hx20/RO/common/printf.o
 .debug_rnglists
                0x00000000000027c5       0x5f build/hx20/RO/common/pwm.o
 .debug_rnglists
                0x0000000000002824       0xf4 build/hx20/RO/common/queue.o
 .debug_rnglists
                0x0000000000002918       0x25 build/hx20/RO/common/shared_mem.o
 .debug_rnglists
                0x000000000000293d       0x2d build/hx20/RO/common/spi_commands.o
 .debug_rnglists
                0x000000000000296a       0xdb build/hx20/RO/common/spi_flash.o
 .debug_rnglists
                0x0000000000002a45       0x1b build/hx20/RO/common/spi_flash_reg.o
 .debug_rnglists
                0x0000000000002a60       0x34 build/hx20/RO/common/switch.o
 .debug_rnglists
                0x0000000000002a94      0x1f3 build/hx20/RO/common/system.o
 .debug_rnglists
                0x0000000000002c87       0x2c build/hx20/RO/common/temp_sensor.o
 .debug_rnglists
                0x0000000000002cb3       0x56 build/hx20/RO/common/thermal.o
 .debug_rnglists
                0x0000000000002d09       0x26 build/hx20/RO/common/throttle_ap.o
 .debug_rnglists
                0x0000000000002d2f       0xac build/hx20/RO/common/timer.o
 .debug_rnglists
                0x0000000000002ddb       0x9d build/hx20/RO/common/uart_buffering.o
 .debug_rnglists
                0x0000000000002e78       0x13 build/hx20/RO/common/uptime.o
 .debug_rnglists
                0x0000000000002e8b      0x135 build/hx20/RO/common/util.o
 .debug_rnglists
                0x0000000000002fc0       0x34 build/hx20/RO/common/version.o
 .debug_rnglists
                0x0000000000002ff4       0x31 build/hx20/RO/common/vstore.o
 .debug_rnglists
                0x0000000000003025       0x13 build/hx20/RO/core/cortex-m/cpu.o
 .debug_rnglists
                0x0000000000003038       0xa3 build/hx20/RO/core/cortex-m/panic.o
 .debug_rnglists
                0x00000000000030db      0x199 build/hx20/RO/core/cortex-m/task.o
 .debug_rnglists
                0x0000000000003274       0x19 build/hx20/RO/core/cortex-m/vecttable.o
 .debug_rnglists
                0x000000000000328d       0x13 build/hx20/RO/core/cortex-m/watchdog.o
 .debug_rnglists
                0x00000000000032a0      0x104 build/hx20/RO/driver/battery/smart.o
 .debug_rnglists
                0x00000000000033a4       0xa4 build/hx20/RO/driver/charger/isl9241.o
 .debug_rnglists
                0x0000000000003448       0x4f build/hx20/RO/driver/temp_sensor/f75303.o
 .debug_rnglists
                0x0000000000003497      0x14e build/hx20/RO/power/common.o
 .debug_rnglists
                0x00000000000035e5       0x4f build/hx20/RO/power/host_sleep.o

.debug_line     0x0000000000000000    0x27473
 .debug_line    0x0000000000000000      0x138 build/hx20/RO/baseboard/fwk/baseboard_host_commands.o
 .debug_line    0x0000000000000138      0x880 build/hx20/RO/baseboard/fwk/battery.o
 .debug_line    0x00000000000009b8      0x599 build/hx20/RO/baseboard/fwk/diagnostics.o
 .debug_line    0x0000000000000f51      0x584 build/hx20/RO/baseboard/fwk/fan.o
 .debug_line    0x00000000000014d5      0x372 build/hx20/RO/baseboard/fwk/flash_storage.o
 .debug_line    0x0000000000001847      0xa1a build/hx20/RO/baseboard/fwk/ps2mouse.o
 .debug_line    0x0000000000002261      0xeda build/hx20/RO/board/hx20/board.o
 .debug_line    0x000000000000313b      0x380 build/hx20/RO/board/hx20/cpu_power.o
 .debug_line    0x00000000000034bb     0x1d62 build/hx20/RO/board/hx20/cypress5525.o
 .debug_line    0x000000000000521d      0x5b7 build/hx20/RO/board/hx20/host_command_customization.o
 .debug_line    0x00000000000057d4      0x5a2 build/hx20/RO/board/hx20/i2c_hid_mediakeys.o
 .debug_line    0x0000000000005d76      0x8b2 build/hx20/RO/board/hx20/keyboard_customization.o
 .debug_line    0x0000000000006628      0x6cc build/hx20/RO/board/hx20/led.o
 .debug_line    0x0000000000006cf4      0x321 build/hx20/RO/board/hx20/peci_customization.o
 .debug_line    0x0000000000007015      0x8bf build/hx20/RO/board/hx20/power_button_x86.o
 .debug_line    0x00000000000078d4      0x9fa build/hx20/RO/board/hx20/power_sequence.o
 .debug_line    0x00000000000082ce      0x630 build/hx20/RO/board/hx20/ucsi.o
 .debug_line    0x00000000000088fe      0x344 build/hx20/RO/chip/mchp/adc.o
 .debug_line    0x0000000000008c42      0x1ff build/hx20/RO/chip/mchp/clock.o
 .debug_line    0x0000000000008e41      0x701 build/hx20/RO/chip/mchp/dma.o
 .debug_line    0x0000000000009542     0x10e5 build/hx20/RO/chip/mchp/espi.o
 .debug_line    0x000000000000a627      0x359 build/hx20/RO/chip/mchp/flash.o
 .debug_line    0x000000000000a980      0x6f6 build/hx20/RO/chip/mchp/gpio.o
 .debug_line    0x000000000000b076      0x259 build/hx20/RO/chip/mchp/hwtimer.o
 .debug_line    0x000000000000b2cf     0x1189 build/hx20/RO/chip/mchp/i2c.o
 .debug_line    0x000000000000c458      0x201 build/hx20/RO/chip/mchp/keyboard_raw.o
 .debug_line    0x000000000000c659      0xa18 build/hx20/RO/chip/mchp/lpc.o
 .debug_line    0x000000000000d071      0x592 build/hx20/RO/chip/mchp/peci.o
 .debug_line    0x000000000000d603       0xd6 build/hx20/RO/chip/mchp/port80.o
 .debug_line    0x000000000000d6d9      0x4d2 build/hx20/RO/chip/mchp/pwm.o
 .debug_line    0x000000000000dbab      0x5ef build/hx20/RO/chip/mchp/qmspi.o
 .debug_line    0x000000000000e19a      0x21d build/hx20/RO/chip/mchp/spi.o
 .debug_line    0x000000000000e3b7      0x729 build/hx20/RO/chip/mchp/system.o
 .debug_line    0x000000000000eae0      0x36d build/hx20/RO/chip/mchp/uart.o
 .debug_line    0x000000000000ee4d      0x185 build/hx20/RO/chip/mchp/watchdog.o
 .debug_line    0x000000000000efd2      0x420 build/hx20/RO/common/acpi.o
 .debug_line    0x000000000000f3f2      0x22a build/hx20/RO/common/adc.o
 .debug_line    0x000000000000f61c      0x6bc build/hx20/RO/common/battery.o
 .debug_line    0x000000000000fcd8     0x1150 build/hx20/RO/common/charge_manager.o
 .debug_line    0x0000000000010e28     0x15b5 build/hx20/RO/common/charge_state_v2.o
 .debug_line    0x00000000000123dd      0xcab build/hx20/RO/common/charger.o
 .debug_line    0x0000000000013088       0xc1 build/hx20/RO/common/chipset.o
 .debug_line    0x0000000000013149      0x90a build/hx20/RO/common/console.o
 .debug_line    0x0000000000013a53      0x26f build/hx20/RO/common/console_output.o
 .debug_line    0x0000000000013cc2      0x4ec build/hx20/RO/common/dptf.o
 .debug_line    0x00000000000141ae      0x119 build/hx20/RO/common/ec_features.o
 .debug_line    0x00000000000142c7       0xa5 build/hx20/RO/common/espi.o
 .debug_line    0x000000000001436c       0xd0 build/hx20/RO/common/extpower_common.o
 .debug_line    0x000000000001443c      0x15b build/hx20/RO/common/extpower_gpio.o
 .debug_line    0x0000000000014597      0xcab build/hx20/RO/common/fan.o
 .debug_line    0x0000000000015242      0x8f3 build/hx20/RO/common/flash.o
 .debug_line    0x0000000000015b35       0x79 build/hx20/RO/common/fmap.o
 .debug_line    0x0000000000015bae      0x3c3 build/hx20/RO/common/gpio.o
 .debug_line    0x0000000000015f71      0x411 build/hx20/RO/common/gpio_commands.o
 .debug_line    0x0000000000016382      0x346 build/hx20/RO/common/hooks.o
 .debug_line    0x00000000000166c8      0xae8 build/hx20/RO/common/host_command.o
 .debug_line    0x00000000000171b0      0xc9f build/hx20/RO/common/host_event_commands.o
 .debug_line    0x0000000000017e4f     0x1480 build/hx20/RO/common/i2c_master.o
 .debug_line    0x00000000000192cf     0x146a build/hx20/RO/common/keyboard_8042.o
 .debug_line    0x000000000001a739       0xcc build/hx20/RO/common/keyboard_8042_sharedlib.o
 .debug_line    0x000000000001a805      0x3b2 build/hx20/RO/common/keyboard_backlight.o
 .debug_line    0x000000000001abb7      0xc03 build/hx20/RO/common/keyboard_scan.o
 .debug_line    0x000000000001b7ba      0x262 build/hx20/RO/common/keyboard_vivaldi.o
 .debug_line    0x000000000001ba1c      0x261 build/hx20/RO/common/led_common.o
 .debug_line    0x000000000001bc7d      0x2fd build/hx20/RO/common/led_pwm.o
 .debug_line    0x000000000001bf7a      0x2aa build/hx20/RO/common/lid_switch.o
 .debug_line    0x000000000001c224      0x1a5 build/hx20/RO/common/main.o
 .debug_line    0x000000000001c3c9      0x356 build/hx20/RO/common/memory_commands.o
 .debug_line    0x000000000001c71f      0x585 build/hx20/RO/common/panic_output.o
 .debug_line    0x000000000001cca4      0x374 build/hx20/RO/common/peci.o
 .debug_line    0x000000000001d018      0x42f build/hx20/RO/common/port80.o
 .debug_line    0x000000000001d447      0x3ca build/hx20/RO/common/power_button.o
 .debug_line    0x000000000001d811      0x764 build/hx20/RO/common/printf.o
 .debug_line    0x000000000001df75      0x387 build/hx20/RO/common/pwm.o
 .debug_line    0x000000000001e2fc      0x702 build/hx20/RO/common/queue.o
 .debug_line    0x000000000001e9fe      0x15c build/hx20/RO/common/shared_mem.o
 .debug_line    0x000000000001eb5a      0x1bd build/hx20/RO/common/spi_commands.o
 .debug_line    0x000000000001ed17      0x9d8 build/hx20/RO/common/spi_flash.o
 .debug_line    0x000000000001f6ef      0x22c build/hx20/RO/common/spi_flash_reg.o
 .debug_line    0x000000000001f91b      0x252 build/hx20/RO/common/switch.o
 .debug_line    0x000000000001fb6d     0x1333 build/hx20/RO/common/system.o
 .debug_line    0x0000000000020ea0      0x33e build/hx20/RO/common/temp_sensor.o
 .debug_line    0x00000000000211de      0x5ba build/hx20/RO/common/thermal.o
 .debug_line    0x0000000000021798      0x27a build/hx20/RO/common/throttle_ap.o
 .debug_line    0x0000000000021a12      0x70f build/hx20/RO/common/timer.o
 .debug_line    0x0000000000022121      0x682 build/hx20/RO/common/uart_buffering.o
 .debug_line    0x00000000000227a3      0x12b build/hx20/RO/common/uptime.o
 .debug_line    0x00000000000228ce      0xf4e build/hx20/RO/common/util.o
 .debug_line    0x000000000002381c      0x14a build/hx20/RO/common/version.o
 .debug_line    0x0000000000023966      0x21a build/hx20/RO/common/vstore.o
 .debug_line    0x0000000000023b80       0x74 build/hx20/RO/core/cortex-m/cpu.o
 .debug_line    0x0000000000023bf4       0x70 build/hx20/RO/core/cortex-m/init.o
 .debug_line    0x0000000000023c64      0x5fa build/hx20/RO/core/cortex-m/panic.o
 .debug_line    0x000000000002425e       0x65 build/hx20/RO/core/cortex-m/switch.o
 .debug_line    0x00000000000242c3      0xda8 build/hx20/RO/core/cortex-m/task.o
 .debug_line    0x000000000002506b       0x95 build/hx20/RO/core/cortex-m/uldivmod.o
 .debug_line    0x0000000000025100       0x81 build/hx20/RO/core/cortex-m/vecttable.o
 .debug_line    0x0000000000025181      0x100 build/hx20/RO/core/cortex-m/watchdog.o
 .debug_line    0x0000000000025281      0x933 build/hx20/RO/driver/battery/smart.o
 .debug_line    0x0000000000025bb4      0x745 build/hx20/RO/driver/charger/isl9241.o
 .debug_line    0x00000000000262f9      0x28b build/hx20/RO/driver/temp_sensor/f75303.o
 .debug_line    0x0000000000026584      0xcdf build/hx20/RO/power/common.o
 .debug_line    0x0000000000027263      0x210 build/hx20/RO/power/host_sleep.o

.debug_str      0x0000000000000000    0x1605b
 .debug_str     0x0000000000000000      0xee6 build/hx20/RO/baseboard/fwk/baseboard_host_commands.o
                                        0xf73 (size before relaxing)
 .debug_str     0x0000000000000ee6     0x129a build/hx20/RO/baseboard/fwk/battery.o
                                       0x2073 (size before relaxing)
 .debug_str     0x0000000000002180      0x7e1 build/hx20/RO/baseboard/fwk/diagnostics.o
                                       0x150b (size before relaxing)
 .debug_str     0x0000000000002961      0x471 build/hx20/RO/baseboard/fwk/fan.o
                                       0x13d7 (size before relaxing)
 .debug_str     0x0000000000002dd2      0x1a1 build/hx20/RO/baseboard/fwk/flash_storage.o
                                        0xfd3 (size before relaxing)
 .debug_str     0x0000000000002f73      0x80d build/hx20/RO/baseboard/fwk/ps2mouse.o
                                       0x1a62 (size before relaxing)
 .debug_str     0x0000000000003780     0x16b4 build/hx20/RO/board/hx20/board.o
                                       0x37e0 (size before relaxing)
 .debug_str     0x0000000000004e34      0x1d1 build/hx20/RO/board/hx20/cpu_power.o
                                       0x126c (size before relaxing)
 .debug_str     0x0000000000005005     0x1ee6 build/hx20/RO/board/hx20/cypress5525.o
                                       0x33f6 (size before relaxing)
 .debug_str     0x0000000000006eeb      0x419 build/hx20/RO/board/hx20/host_command_customization.o
                                       0x2097 (size before relaxing)
 .debug_str     0x0000000000007304      0x30a build/hx20/RO/board/hx20/i2c_hid_mediakeys.o
                                       0x1425 (size before relaxing)
 .debug_str     0x000000000000760e      0x967 build/hx20/RO/board/hx20/keyboard_customization.o
                                       0x1dfe (size before relaxing)
 .debug_str     0x0000000000007f75      0x3bd build/hx20/RO/board/hx20/led.o
                                       0x1a10 (size before relaxing)
 .debug_str     0x0000000000008332      0x19f build/hx20/RO/board/hx20/peci_customization.o
                                        0x860 (size before relaxing)
 .debug_str     0x00000000000084d1      0x742 build/hx20/RO/board/hx20/power_button_x86.o
                                       0x1ceb (size before relaxing)
 .debug_str     0x0000000000008c13      0x691 build/hx20/RO/board/hx20/power_sequence.o
                                       0x27cc (size before relaxing)
 .debug_str     0x00000000000092a4      0x35e build/hx20/RO/board/hx20/ucsi.o
                                       0x17a5 (size before relaxing)
 .debug_str     0x0000000000009602      0x36a build/hx20/RO/chip/mchp/adc.o
                                       0x1182 (size before relaxing)
 .debug_str     0x000000000000996c       0xc2 build/hx20/RO/chip/mchp/clock.o
                                        0xc05 (size before relaxing)
 .debug_str     0x0000000000009a2e      0x31f build/hx20/RO/chip/mchp/dma.o
                                        0x8cb (size before relaxing)
 .debug_str     0x0000000000009d4d      0x62f build/hx20/RO/chip/mchp/espi.o
                                       0x1b24 (size before relaxing)
 .debug_str     0x000000000000a37c      0x251 build/hx20/RO/chip/mchp/flash.o
                                       0x1169 (size before relaxing)
 .debug_str     0x000000000000a5cd      0x1e9 build/hx20/RO/chip/mchp/gpio.o
                                       0x1357 (size before relaxing)
 .debug_str     0x000000000000a7b6      0x141 build/hx20/RO/chip/mchp/hwtimer.o
                                        0x832 (size before relaxing)
 .debug_str     0x000000000000a8f7      0x491 build/hx20/RO/chip/mchp/i2c.o
                                       0x17fb (size before relaxing)
 .debug_str     0x000000000000ad88      0x11b build/hx20/RO/chip/mchp/keyboard_raw.o
                                        0xbd3 (size before relaxing)
 .debug_str     0x000000000000aea3      0x634 build/hx20/RO/chip/mchp/lpc.o
                                       0x210a (size before relaxing)
 .debug_str     0x000000000000b4d7      0x186 build/hx20/RO/chip/mchp/peci.o
                                       0x1092 (size before relaxing)
 .debug_str     0x000000000000b65d       0x3c build/hx20/RO/chip/mchp/port80.o
                                        0x96f (size before relaxing)
 .debug_str     0x000000000000b699       0xfa build/hx20/RO/chip/mchp/pwm.o
                                        0xb70 (size before relaxing)
 .debug_str     0x000000000000b793      0x13b build/hx20/RO/chip/mchp/qmspi.o
                                        0xfab (size before relaxing)
 .debug_str     0x000000000000b8ce       0x6c build/hx20/RO/chip/mchp/spi.o
                                        0xf4a (size before relaxing)
 .debug_str     0x000000000000b93a      0x3f6 build/hx20/RO/chip/mchp/system.o
                                       0x1546 (size before relaxing)
 .debug_str     0x000000000000bd30      0x31b build/hx20/RO/chip/mchp/uart.o
                                        0xf38 (size before relaxing)
 .debug_str     0x000000000000c04b       0x9f build/hx20/RO/chip/mchp/watchdog.o
                                        0xcb1 (size before relaxing)
 .debug_str     0x000000000000c0ea      0x31b build/hx20/RO/common/acpi.o
                                       0x159c (size before relaxing)
 .debug_str     0x000000000000c405       0xbd build/hx20/RO/common/adc.o
                                       0x11b5 (size before relaxing)
 .debug_str     0x000000000000c4c2      0x3a8 build/hx20/RO/common/battery.o
                                       0x1144 (size before relaxing)
 .debug_str     0x000000000000c86a      0x9d7 build/hx20/RO/common/charge_manager.o
                                       0x21c7 (size before relaxing)
 .debug_str     0x000000000000d241      0xd42 build/hx20/RO/common/charge_state_v2.o
                                       0x3210 (size before relaxing)
 .debug_str     0x000000000000df83      0x219 build/hx20/RO/common/charger.o
                                       0x17aa (size before relaxing)
 .debug_str     0x000000000000e19c       0x8e build/hx20/RO/common/chipset.o
                                       0x110d (size before relaxing)
 .debug_str     0x000000000000e22a      0x2f5 build/hx20/RO/common/console.o
                                       0x1226 (size before relaxing)
 .debug_str     0x000000000000e51f       0xbb build/hx20/RO/common/console_output.o
                                        0xc64 (size before relaxing)
 .debug_str     0x000000000000e5da      0x185 build/hx20/RO/common/dptf.o
                                       0x17a5 (size before relaxing)
 .debug_str     0x000000000000e75f      0x3ec build/hx20/RO/common/ec_features.o
                                       0x11e5 (size before relaxing)
 .debug_str     0x000000000000eb4b       0x44 build/hx20/RO/common/espi.o
                                        0x86e (size before relaxing)
 .debug_str     0x000000000000eb8f       0x42 build/hx20/RO/common/extpower_common.o
                                        0x7ae (size before relaxing)
 .debug_str     0x000000000000ebd1       0x52 build/hx20/RO/common/extpower_gpio.o
                                        0xc26 (size before relaxing)
 .debug_str     0x000000000000ec23      0x484 build/hx20/RO/common/fan.o
                                       0x1eb6 (size before relaxing)
 .debug_str     0x000000000000f0a7      0x553 build/hx20/RO/common/flash.o
                                       0x17f4 (size before relaxing)
 .debug_str     0x000000000000f5fa       0xcf build/hx20/RO/common/fmap.o
                                        0xa08 (size before relaxing)
 .debug_str     0x000000000000f6c9      0x113 build/hx20/RO/common/gpio.o
                                       0x10d3 (size before relaxing)
 .debug_str     0x000000000000f7dc      0x215 build/hx20/RO/common/gpio_commands.o
                                       0x1322 (size before relaxing)
 .debug_str     0x000000000000f9f1      0x497 build/hx20/RO/common/hooks.o
                                       0x161a (size before relaxing)
 .debug_str     0x000000000000fe88      0x47a build/hx20/RO/common/host_command.o
                                       0x1cfd (size before relaxing)
 .debug_str     0x0000000000010302      0x6e2 build/hx20/RO/common/host_event_commands.o
                                       0x200b (size before relaxing)
 .debug_str     0x00000000000109e4      0x8d6 build/hx20/RO/common/i2c_master.o
                                       0x222f (size before relaxing)
 .debug_str     0x00000000000112ba      0x856 build/hx20/RO/common/keyboard_8042.o
                                       0x2492 (size before relaxing)
 .debug_str     0x0000000000011b10       0x3a build/hx20/RO/common/keyboard_8042_sharedlib.o
                                        0xf5d (size before relaxing)
 .debug_str     0x0000000000011b4a      0x1f6 build/hx20/RO/common/keyboard_backlight.o
                                       0x14fc (size before relaxing)
 .debug_str     0x0000000000011d40      0x479 build/hx20/RO/common/keyboard_scan.o
                                       0x20b5 (size before relaxing)
 .debug_str     0x00000000000121b9      0x1ec build/hx20/RO/common/keyboard_vivaldi.o
                                       0x173a (size before relaxing)
 .debug_str     0x00000000000123a5       0xee build/hx20/RO/common/led_common.o
                                       0x113a (size before relaxing)
 .debug_str     0x0000000000012493       0x9c build/hx20/RO/common/led_pwm.o
                                       0x12dd (size before relaxing)
 .debug_str     0x000000000001252f      0x1ac build/hx20/RO/common/lid_switch.o
                                       0x19a4 (size before relaxing)
 .debug_str     0x00000000000126db      0x107 build/hx20/RO/common/main.o
                                        0x872 (size before relaxing)
 .debug_str     0x00000000000127e2       0xc1 build/hx20/RO/common/memory_commands.o
                                        0xca0 (size before relaxing)
 .debug_str     0x00000000000128a3      0x300 build/hx20/RO/common/panic_output.o
                                       0x1302 (size before relaxing)
 .debug_str     0x0000000000012ba3       0x8b build/hx20/RO/common/peci.o
                                       0x10e6 (size before relaxing)
 .debug_str     0x0000000000012c2e      0x207 build/hx20/RO/common/port80.o
                                       0x152e (size before relaxing)
 .debug_str     0x0000000000012e35      0x136 build/hx20/RO/common/power_button.o
                                       0x19fa (size before relaxing)
 .debug_str     0x0000000000012f6b       0xb7 build/hx20/RO/common/printf.o
                                        0xbde (size before relaxing)
 .debug_str     0x0000000000013022      0x1b9 build/hx20/RO/common/pwm.o
                                       0x17e9 (size before relaxing)
 .debug_str     0x00000000000131db      0x140 build/hx20/RO/common/queue.o
                                        0xa67 (size before relaxing)
 .debug_str     0x000000000001331b       0x8c build/hx20/RO/common/shared_mem.o
                                        0xe97 (size before relaxing)
 .debug_str     0x00000000000133a7       0x50 build/hx20/RO/common/spi_commands.o
                                        0xea6 (size before relaxing)
 .debug_str     0x00000000000133f7      0x38b build/hx20/RO/common/spi_flash.o
                                       0x1360 (size before relaxing)
 .debug_str     0x0000000000013782       0x62 build/hx20/RO/common/spi_flash_reg.o
                                        0xab2 (size before relaxing)
 .debug_str     0x00000000000137e4       0xfd build/hx20/RO/common/switch.o
                                       0x113d (size before relaxing)
 .debug_str     0x00000000000138e1      0x7c7 build/hx20/RO/common/system.o
                                       0x29bb (size before relaxing)
 .debug_str     0x00000000000140a8      0x13b build/hx20/RO/common/temp_sensor.o
                                       0x1535 (size before relaxing)
 .debug_str     0x00000000000141e3      0x291 build/hx20/RO/common/thermal.o
                                       0x1d36 (size before relaxing)
 .debug_str     0x0000000000014474      0x103 build/hx20/RO/common/throttle_ap.o
                                       0x1093 (size before relaxing)
 .debug_str     0x0000000000014577      0x1ab build/hx20/RO/common/timer.o
                                       0x1483 (size before relaxing)
 .debug_str     0x0000000000014722      0x293 build/hx20/RO/common/uart_buffering.o
                                       0x12cc (size before relaxing)
 .debug_str     0x00000000000149b5      0x10c build/hx20/RO/common/uptime.o
                                       0x1062 (size before relaxing)
 .debug_str     0x0000000000014ac1      0x10a build/hx20/RO/common/util.o
                                        0x8df (size before relaxing)
 .debug_str     0x0000000000014bcb       0x3d build/hx20/RO/common/version.o
                                        0xa49 (size before relaxing)
 .debug_str     0x0000000000014c08      0x164 build/hx20/RO/common/vstore.o
                                        0xf60 (size before relaxing)
 .debug_str     0x0000000000014d6c      0x131 build/hx20/RO/core/cortex-m/cpu.o
                                        0x301 (size before relaxing)
 .debug_str     0x0000000000014e9d       0x21 build/hx20/RO/core/cortex-m/init.o
                                         0x3f (size before relaxing)
 .debug_str     0x0000000000014ebe      0x1b6 build/hx20/RO/core/cortex-m/panic.o
                                        0xdcb (size before relaxing)
 .debug_str     0x0000000000015074       0x17 build/hx20/RO/core/cortex-m/switch.o
                                         0x41 (size before relaxing)
 .debug_str     0x000000000001508b      0x307 build/hx20/RO/core/cortex-m/task.o
                                       0x1518 (size before relaxing)
 .debug_str     0x0000000000015392       0x19 build/hx20/RO/core/cortex-m/uldivmod.o
                                         0x43 (size before relaxing)
 .debug_str     0x00000000000153ab       0x4f build/hx20/RO/core/cortex-m/vecttable.o
                                        0x702 (size before relaxing)
 .debug_str     0x00000000000153fa       0x19 build/hx20/RO/core/cortex-m/watchdog.o
                                        0x282 (size before relaxing)
 .debug_str     0x0000000000015413      0x18a build/hx20/RO/driver/battery/smart.o
                                       0x1641 (size before relaxing)
 .debug_str     0x000000000001559d      0x250 build/hx20/RO/driver/charger/isl9241.o
                                       0x150b (size before relaxing)
 .debug_str     0x00000000000157ed       0xaa build/hx20/RO/driver/temp_sensor/f75303.o
                                       0x11e9 (size before relaxing)
 .debug_str     0x0000000000015897      0x4f5 build/hx20/RO/power/common.o
                                       0x24a2 (size before relaxing)
 .debug_str     0x0000000000015d8c      0x2cf build/hx20/RO/power/host_sleep.o
                                        0xe96 (size before relaxing)

.comment        0x0000000000000000       0x26
 .comment       0x0000000000000000       0x26 build/hx20/RO/baseboard/fwk/baseboard_host_commands.o
                                         0x27 (size before relaxing)
 .comment       0x0000000000000026       0x27 build/hx20/RO/baseboard/fwk/battery.o
 .comment       0x0000000000000026       0x27 build/hx20/RO/baseboard/fwk/diagnostics.o
 .comment       0x0000000000000026       0x27 build/hx20/RO/baseboard/fwk/fan.o
 .comment       0x0000000000000026       0x27 build/hx20/RO/baseboard/fwk/flash_storage.o
 .comment       0x0000000000000026       0x27 build/hx20/RO/baseboard/fwk/ps2mouse.o
 .comment       0x0000000000000026       0x27 build/hx20/RO/board/hx20/board.o
 .comment       0x0000000000000026       0x27 build/hx20/RO/board/hx20/cpu_power.o
 .comment       0x0000000000000026       0x27 build/hx20/RO/board/hx20/cypress5525.o
 .comment       0x0000000000000026       0x27 build/hx20/RO/board/hx20/host_command_customization.o
 .comment       0x0000000000000026       0x27 build/hx20/RO/board/hx20/i2c_hid_mediakeys.o
 .comment       0x0000000000000026       0x27 build/hx20/RO/board/hx20/keyboard_customization.o
 .comment       0x0000000000000026       0x27 build/hx20/RO/board/hx20/led.o
 .comment       0x0000000000000026       0x27 build/hx20/RO/board/hx20/peci_customization.o
 .comment       0x0000000000000026       0x27 build/hx20/RO/board/hx20/power_button_x86.o
 .comment       0x0000000000000026       0x27 build/hx20/RO/board/hx20/power_sequence.o
 .comment       0x0000000000000026       0x27 build/hx20/RO/board/hx20/ucsi.o
 .comment       0x0000000000000026       0x27 build/hx20/RO/chip/mchp/adc.o
 .comment       0x0000000000000026       0x27 build/hx20/RO/chip/mchp/clock.o
 .comment       0x0000000000000026       0x27 build/hx20/RO/chip/mchp/dma.o
 .comment       0x0000000000000026       0x27 build/hx20/RO/chip/mchp/espi.o
 .comment       0x0000000000000026       0x27 build/hx20/RO/chip/mchp/flash.o
 .comment       0x0000000000000026       0x27 build/hx20/RO/chip/mchp/gpio.o
 .comment       0x0000000000000026       0x27 build/hx20/RO/chip/mchp/hwtimer.o
 .comment       0x0000000000000026       0x27 build/hx20/RO/chip/mchp/i2c.o
 .comment       0x0000000000000026       0x27 build/hx20/RO/chip/mchp/keyboard_raw.o
 .comment       0x0000000000000026       0x27 build/hx20/RO/chip/mchp/lpc.o
 .comment       0x0000000000000026       0x27 build/hx20/RO/chip/mchp/peci.o
 .comment       0x0000000000000026       0x27 build/hx20/RO/chip/mchp/port80.o
 .comment       0x0000000000000026       0x27 build/hx20/RO/chip/mchp/pwm.o
 .comment       0x0000000000000026       0x27 build/hx20/RO/chip/mchp/qmspi.o
 .comment       0x0000000000000026       0x27 build/hx20/RO/chip/mchp/spi.o
 .comment       0x0000000000000026       0x27 build/hx20/RO/chip/mchp/system.o
 .comment       0x0000000000000026       0x27 build/hx20/RO/chip/mchp/uart.o
 .comment       0x0000000000000026       0x27 build/hx20/RO/chip/mchp/watchdog.o
 .comment       0x0000000000000026       0x27 build/hx20/RO/common/acpi.o
 .comment       0x0000000000000026       0x27 build/hx20/RO/common/adc.o
 .comment       0x0000000000000026       0x27 build/hx20/RO/common/battery.o
 .comment       0x0000000000000026       0x27 build/hx20/RO/common/charge_manager.o
 .comment       0x0000000000000026       0x27 build/hx20/RO/common/charge_state_v2.o
 .comment       0x0000000000000026       0x27 build/hx20/RO/common/charger.o
 .comment       0x0000000000000026       0x27 build/hx20/RO/common/chipset.o
 .comment       0x0000000000000026       0x27 build/hx20/RO/common/console.o
 .comment       0x0000000000000026       0x27 build/hx20/RO/common/console_output.o
 .comment       0x0000000000000026       0x27 build/hx20/RO/common/dptf.o
 .comment       0x0000000000000026       0x27 build/hx20/RO/common/ec_features.o
 .comment       0x0000000000000026       0x27 build/hx20/RO/common/espi.o
 .comment       0x0000000000000026       0x27 build/hx20/RO/common/extpower_common.o
 .comment       0x0000000000000026       0x27 build/hx20/RO/common/extpower_gpio.o
 .comment       0x0000000000000026       0x27 build/hx20/RO/common/fan.o
 .comment       0x0000000000000026       0x27 build/hx20/RO/common/flash.o
 .comment       0x0000000000000026       0x27 build/hx20/RO/common/fmap.o
 .comment       0x0000000000000026       0x27 build/hx20/RO/common/gpio.o
 .comment       0x0000000000000026       0x27 build/hx20/RO/common/gpio_commands.o
 .comment       0x0000000000000026       0x27 build/hx20/RO/common/hooks.o
 .comment       0x0000000000000026       0x27 build/hx20/RO/common/host_command.o
 .comment       0x0000000000000026       0x27 build/hx20/RO/common/host_event_commands.o
 .comment       0x0000000000000026       0x27 build/hx20/RO/common/i2c_master.o
 .comment       0x0000000000000026       0x27 build/hx20/RO/common/keyboard_8042.o
 .comment       0x0000000000000026       0x27 build/hx20/RO/common/keyboard_8042_sharedlib.o
 .comment       0x0000000000000026       0x27 build/hx20/RO/common/keyboard_backlight.o
 .comment       0x0000000000000026       0x27 build/hx20/RO/common/keyboard_scan.o
 .comment       0x0000000000000026       0x27 build/hx20/RO/common/keyboard_vivaldi.o
 .comment       0x0000000000000026       0x27 build/hx20/RO/common/led_common.o
 .comment       0x0000000000000026       0x27 build/hx20/RO/common/led_pwm.o
 .comment       0x0000000000000026       0x27 build/hx20/RO/common/lid_switch.o
 .comment       0x0000000000000026       0x27 build/hx20/RO/common/main.o
 .comment       0x0000000000000026       0x27 build/hx20/RO/common/memory_commands.o
 .comment       0x0000000000000026       0x27 build/hx20/RO/common/panic_output.o
 .comment       0x0000000000000026       0x27 build/hx20/RO/common/peci.o
 .comment       0x0000000000000026       0x27 build/hx20/RO/common/port80.o
 .comment       0x0000000000000026       0x27 build/hx20/RO/common/power_button.o
 .comment       0x0000000000000026       0x27 build/hx20/RO/common/printf.o
 .comment       0x0000000000000026       0x27 build/hx20/RO/common/pwm.o
 .comment       0x0000000000000026       0x27 build/hx20/RO/common/queue.o
 .comment       0x0000000000000026       0x27 build/hx20/RO/common/shared_mem.o
 .comment       0x0000000000000026       0x27 build/hx20/RO/common/spi_commands.o
 .comment       0x0000000000000026       0x27 build/hx20/RO/common/spi_flash.o
 .comment       0x0000000000000026       0x27 build/hx20/RO/common/spi_flash_reg.o
 .comment       0x0000000000000026       0x27 build/hx20/RO/common/switch.o
 .comment       0x0000000000000026       0x27 build/hx20/RO/common/system.o
 .comment       0x0000000000000026       0x27 build/hx20/RO/common/temp_sensor.o
 .comment       0x0000000000000026       0x27 build/hx20/RO/common/thermal.o
 .comment       0x0000000000000026       0x27 build/hx20/RO/common/throttle_ap.o
 .comment       0x0000000000000026       0x27 build/hx20/RO/common/timer.o
 .comment       0x0000000000000026       0x27 build/hx20/RO/common/uart_buffering.o
 .comment       0x0000000000000026       0x27 build/hx20/RO/common/uptime.o
 .comment       0x0000000000000026       0x27 build/hx20/RO/common/util.o
 .comment       0x0000000000000026       0x27 build/hx20/RO/common/version.o
 .comment       0x0000000000000026       0x27 build/hx20/RO/common/vstore.o
 .comment       0x0000000000000026       0x27 build/hx20/RO/core/cortex-m/cpu.o
 .comment       0x0000000000000026       0x27 build/hx20/RO/core/cortex-m/panic.o
 .comment       0x0000000000000026       0x27 build/hx20/RO/core/cortex-m/task.o
 .comment       0x0000000000000026       0x27 build/hx20/RO/core/cortex-m/vecttable.o
 .comment       0x0000000000000026       0x27 build/hx20/RO/core/cortex-m/watchdog.o
 .comment       0x0000000000000026       0x27 build/hx20/RO/driver/battery/smart.o
 .comment       0x0000000000000026       0x27 build/hx20/RO/driver/charger/isl9241.o
 .comment       0x0000000000000026       0x27 build/hx20/RO/driver/temp_sensor/f75303.o
 .comment       0x0000000000000026       0x27 build/hx20/RO/power/common.o
 .comment       0x0000000000000026       0x27 build/hx20/RO/power/host_sleep.o

.debug_frame    0x0000000000000000     0x8e34
 .debug_frame   0x0000000000000000       0x2c build/hx20/RO/baseboard/fwk/baseboard_host_commands.o
 .debug_frame   0x000000000000002c      0x108 build/hx20/RO/baseboard/fwk/battery.o
 .debug_frame   0x0000000000000134       0xe4 build/hx20/RO/baseboard/fwk/diagnostics.o
 .debug_frame   0x0000000000000218      0x170 build/hx20/RO/baseboard/fwk/fan.o
 .debug_frame   0x0000000000000388       0xc4 build/hx20/RO/baseboard/fwk/flash_storage.o
 .debug_frame   0x000000000000044c      0x1e0 build/hx20/RO/baseboard/fwk/ps2mouse.o
 .debug_frame   0x000000000000062c      0x4a0 build/hx20/RO/board/hx20/board.o
 .debug_frame   0x0000000000000acc       0xa0 build/hx20/RO/board/hx20/cpu_power.o
 .debug_frame   0x0000000000000b6c      0x834 build/hx20/RO/board/hx20/cypress5525.o
 .debug_frame   0x00000000000013a0      0x140 build/hx20/RO/board/hx20/host_command_customization.o
 .debug_frame   0x00000000000014e0       0xe4 build/hx20/RO/board/hx20/i2c_hid_mediakeys.o
 .debug_frame   0x00000000000015c4      0x1f0 build/hx20/RO/board/hx20/keyboard_customization.o
 .debug_frame   0x00000000000017b4      0x128 build/hx20/RO/board/hx20/led.o
 .debug_frame   0x00000000000018dc      0x100 build/hx20/RO/board/hx20/peci_customization.o
 .debug_frame   0x00000000000019dc      0x1b4 build/hx20/RO/board/hx20/power_button_x86.o
 .debug_frame   0x0000000000001b90      0x1f0 build/hx20/RO/board/hx20/power_sequence.o
 .debug_frame   0x0000000000001d80       0xf4 build/hx20/RO/board/hx20/ucsi.o
 .debug_frame   0x0000000000001e74       0xa8 build/hx20/RO/chip/mchp/adc.o
 .debug_frame   0x0000000000001f1c       0x78 build/hx20/RO/chip/mchp/clock.o
 .debug_frame   0x0000000000001f94      0x1ec build/hx20/RO/chip/mchp/dma.o
 .debug_frame   0x0000000000002180      0x3b4 build/hx20/RO/chip/mchp/espi.o
 .debug_frame   0x0000000000002534      0x118 build/hx20/RO/chip/mchp/flash.o
 .debug_frame   0x000000000000264c      0x204 build/hx20/RO/chip/mchp/gpio.o
 .debug_frame   0x0000000000002850       0xc8 build/hx20/RO/chip/mchp/hwtimer.o
 .debug_frame   0x0000000000002918      0x320 build/hx20/RO/chip/mchp/i2c.o
 .debug_frame   0x0000000000002c38       0xac build/hx20/RO/chip/mchp/keyboard_raw.o
 .debug_frame   0x0000000000002ce4      0x340 build/hx20/RO/chip/mchp/lpc.o
 .debug_frame   0x0000000000003024      0x104 build/hx20/RO/chip/mchp/peci.o
 .debug_frame   0x0000000000003128       0x3c build/hx20/RO/chip/mchp/port80.o
 .debug_frame   0x0000000000003164       0xf0 build/hx20/RO/chip/mchp/pwm.o
 .debug_frame   0x0000000000003254       0xf0 build/hx20/RO/chip/mchp/qmspi.o
 .debug_frame   0x0000000000003344       0x94 build/hx20/RO/chip/mchp/spi.o
 .debug_frame   0x00000000000033d8      0x180 build/hx20/RO/chip/mchp/system.o
 .debug_frame   0x0000000000003558      0x120 build/hx20/RO/chip/mchp/uart.o
 .debug_frame   0x0000000000003678       0x5c build/hx20/RO/chip/mchp/watchdog.o
 .debug_frame   0x00000000000036d4       0x68 build/hx20/RO/common/acpi.o
 .debug_frame   0x000000000000373c       0x70 build/hx20/RO/common/adc.o
 .debug_frame   0x00000000000037ac      0x184 build/hx20/RO/common/battery.o
 .debug_frame   0x0000000000003930      0x3d8 build/hx20/RO/common/charge_manager.o
 .debug_frame   0x0000000000003d08      0x2bc build/hx20/RO/common/charge_state_v2.o
 .debug_frame   0x0000000000003fc4      0x3f4 build/hx20/RO/common/charger.o
 .debug_frame   0x00000000000043b8       0x40 build/hx20/RO/common/chipset.o
 .debug_frame   0x00000000000043f8      0x124 build/hx20/RO/common/console.o
 .debug_frame   0x000000000000451c       0xb8 build/hx20/RO/common/console_output.o
 .debug_frame   0x00000000000045d4       0xd8 build/hx20/RO/common/dptf.o
 .debug_frame   0x00000000000046ac       0x78 build/hx20/RO/common/ec_features.o
 .debug_frame   0x0000000000004724       0x30 build/hx20/RO/common/espi.o
 .debug_frame   0x0000000000004754       0x30 build/hx20/RO/common/extpower_common.o
 .debug_frame   0x0000000000004784       0x70 build/hx20/RO/common/extpower_gpio.o
 .debug_frame   0x00000000000047f4      0x2fc build/hx20/RO/common/fan.o
 .debug_frame   0x0000000000004af0      0x1e0 build/hx20/RO/common/flash.o
 .debug_frame   0x0000000000004cd0      0x148 build/hx20/RO/common/gpio.o
 .debug_frame   0x0000000000004e18       0xe0 build/hx20/RO/common/gpio_commands.o
 .debug_frame   0x0000000000004ef8       0x80 build/hx20/RO/common/hooks.o
 .debug_frame   0x0000000000004f78      0x1f0 build/hx20/RO/common/host_command.o
 .debug_frame   0x0000000000005168      0x31c build/hx20/RO/common/host_event_commands.o
 .debug_frame   0x0000000000005484      0x540 build/hx20/RO/common/i2c_master.o
 .debug_frame   0x00000000000059c4      0x38c build/hx20/RO/common/keyboard_8042.o
 .debug_frame   0x0000000000005d50       0x20 build/hx20/RO/common/keyboard_8042_sharedlib.o
 .debug_frame   0x0000000000005d70      0x13c build/hx20/RO/common/keyboard_backlight.o
 .debug_frame   0x0000000000005eac      0x200 build/hx20/RO/common/keyboard_scan.o
 .debug_frame   0x00000000000060ac       0x78 build/hx20/RO/common/keyboard_vivaldi.o
 .debug_frame   0x0000000000006124       0x84 build/hx20/RO/common/led_common.o
 .debug_frame   0x00000000000061a8       0xac build/hx20/RO/common/led_pwm.o
 .debug_frame   0x0000000000006254      0x134 build/hx20/RO/common/lid_switch.o
 .debug_frame   0x0000000000006388       0x30 build/hx20/RO/common/main.o
 .debug_frame   0x00000000000063b8       0x64 build/hx20/RO/common/memory_commands.o
 .debug_frame   0x000000000000641c      0x180 build/hx20/RO/common/panic_output.o
 .debug_frame   0x000000000000659c       0xb0 build/hx20/RO/common/peci.o
 .debug_frame   0x000000000000664c       0xc8 build/hx20/RO/common/port80.o
 .debug_frame   0x0000000000006714      0x104 build/hx20/RO/common/power_button.o
 .debug_frame   0x0000000000006818       0x98 build/hx20/RO/common/printf.o
 .debug_frame   0x00000000000068b0       0xd0 build/hx20/RO/common/pwm.o
 .debug_frame   0x0000000000006980      0x260 build/hx20/RO/common/queue.o
 .debug_frame   0x0000000000006be0       0x6c build/hx20/RO/common/shared_mem.o
 .debug_frame   0x0000000000006c4c       0x38 build/hx20/RO/common/spi_commands.o
 .debug_frame   0x0000000000006c84      0x2d0 build/hx20/RO/common/spi_flash.o
 .debug_frame   0x0000000000006f54       0x50 build/hx20/RO/common/spi_flash_reg.o
 .debug_frame   0x0000000000006fa4       0x80 build/hx20/RO/common/switch.o
 .debug_frame   0x0000000000007024      0x4d8 build/hx20/RO/common/system.o
 .debug_frame   0x00000000000074fc       0x9c build/hx20/RO/common/temp_sensor.o
 .debug_frame   0x0000000000007598       0xd0 build/hx20/RO/common/thermal.o
 .debug_frame   0x0000000000007668       0x84 build/hx20/RO/common/throttle_ap.o
 .debug_frame   0x00000000000076ec      0x1c8 build/hx20/RO/common/timer.o
 .debug_frame   0x00000000000078b4      0x21c build/hx20/RO/common/uart_buffering.o
 .debug_frame   0x0000000000007ad0       0x30 build/hx20/RO/common/uptime.o
 .debug_frame   0x0000000000007b00      0x398 build/hx20/RO/common/util.o
 .debug_frame   0x0000000000007e98       0x28 build/hx20/RO/common/version.o
 .debug_frame   0x0000000000007ec0       0x94 build/hx20/RO/common/vstore.o
 .debug_frame   0x0000000000007f54       0x20 build/hx20/RO/core/cortex-m/cpu.o
 .debug_frame   0x0000000000007f74      0x124 build/hx20/RO/core/cortex-m/panic.o
 .debug_frame   0x0000000000008098      0x2f0 build/hx20/RO/core/cortex-m/task.o
 .debug_frame   0x0000000000008388       0x30 build/hx20/RO/core/cortex-m/vecttable.o
 .debug_frame   0x00000000000083b8       0x3c build/hx20/RO/core/cortex-m/watchdog.o
 .debug_frame   0x00000000000083f4      0x2f4 build/hx20/RO/driver/battery/smart.o
 .debug_frame   0x00000000000086e8      0x278 build/hx20/RO/driver/charger/isl9241.o
 .debug_frame   0x0000000000008960       0x90 build/hx20/RO/driver/temp_sensor/f75303.o
 .debug_frame   0x00000000000089f0      0x370 build/hx20/RO/power/common.o
 .debug_frame   0x0000000000008d60       0xd4 build/hx20/RO/power/host_sleep.o

.debug_line_str
                0x0000000000000000       0x47
 .debug_line_str
                0x0000000000000000       0x33 build/hx20/RO/core/cortex-m/init.o
 .debug_line_str
                0x0000000000000033        0x9 build/hx20/RO/core/cortex-m/switch.o
                                         0x35 (size before relaxing)
 .debug_line_str
                0x000000000000003c        0xb build/hx20/RO/core/cortex-m/uldivmod.o
                                         0x37 (size before relaxing)
